Archive member included because of file (symbol)

/usr/bin/../lib/gcc/arm-none-eabi/4.8.3/../../../../arm-none-eabi/lib/armv7-m/libc.a(lib_a-memcmp.o)
                              ../../src/KEYBOARD/report_protocol.o (memcmp)
/usr/bin/../lib/gcc/arm-none-eabi/4.8.3/../../../../arm-none-eabi/lib/armv7-m/libc.a(lib_a-memcpy.o)
                              ../../src/CCID/CcidLocalAccess.o (memcpy)
/usr/bin/../lib/gcc/arm-none-eabi/4.8.3/../../../../arm-none-eabi/lib/armv7-m/libc.a(lib_a-memmove.o)
                              ../../src/CRYPT/SHA1/sha1.o (memmove)
/usr/bin/../lib/gcc/arm-none-eabi/4.8.3/../../../../arm-none-eabi/lib/armv7-m/libc.a(lib_a-memset.o)
                              ../../src/CRYPT/SHA1/sha1.o (memset)
/usr/bin/../lib/gcc/arm-none-eabi/4.8.3/../../../../arm-none-eabi/lib/armv7-m/libc.a(lib_a-setjmp.o)
                              ../../src/main.o (setjmp)
/usr/bin/../lib/gcc/arm-none-eabi/4.8.3/../../../../arm-none-eabi/lib/armv7-m/libc.a(lib_a-strcpy.o)
                              ../../src/CCID/CcidLocalAccess.o (strcpy)
/usr/bin/../lib/gcc/arm-none-eabi/4.8.3/../../../../arm-none-eabi/lib/armv7-m/libc.a(lib_a-strlen.o)
                              ../../src/CCID/CcidLocalAccess.o (strlen)

Allocating common symbols
Common symbol       size              file

SaveRState          0x2               ../../src/STM/Libraries/STM32_USB-FS-Device_Driver/src/usb_int.o
UsbIntMessageBuffer
                    0x4               ../../src/CCID/Ccid_usb.o
InstructionByte     0x1               ../../src/CCID/Crd.o
HID_SetReport_Value
                    0x40              ../../src/CCID/CCIDHID_USB/CCIDHID_usb_prop.o
CBW                 0x20              ../../src/USB/usb_bot.o
CrdFlags            0x1               ../../src/CCID/Crd.o
CrdBufferSize       0x4               ../../src/CCID/Crd.o
temp_password       0x19              ../../src/KEYBOARD/report_protocol.o
UsbMessageFlags     0x1               ../../src/CCID/Ccid_usb.o
SaveState           0x2               ../../src/STM/Libraries/STM32_USB-FS-Device_Driver/src/usb_init.o
ProtocolValue       0x4               ../../src/CCID/CCIDHID_USB/CCIDHID_usb_prop.o
SC_ATR_Table        0x28              ../../src/CCID/SMARTCARD/smartcard.o
wIstr               0x2               ../../src/USB/usb_istr.o
pProperty           0x4               ../../src/STM/Libraries/STM32_USB-FS-Device_Driver/src/usb_init.o
UsbMessageBuffer    0x160             ../../src/CCID/Ccid_usb.o
EPindex             0x1               ../../src/STM/Libraries/STM32_USB-FS-Device_Driver/src/usb_init.o
message             0x40              ../../src/CCID/CCIDHID_USB/CCIDHID_usb_prop.o
Data_Len            0x2               ../../src/USB/usb_bot.o
MASS_Device_Info    0x1c              ../../src/SD_DISK/SD_USB/usb_prop.o
Bot_State           0x1               ../../src/USB/usb_bot.o
SCSI_LBA            0x4               ../../src/USB/usb_bot.o
SaveTState          0x2               ../../src/STM/Libraries/STM32_USB-FS-Device_Driver/src/usb_int.o
Device_Info         0x4               ../../src/STM/Libraries/STM32_USB-FS-Device_Driver/src/usb_init.o
AbortSequenceNumber
                    0x1               ../../src/CCID/Ccid_usb.o
jmpRestartUSB       0x5c              ../../src/main.o
pUser_Standard_Requests
                    0x4               ../../src/STM/Libraries/STM32_USB-FS-Device_Driver/src/usb_init.o
BulkStatus          0x1               ../../src/CCID/Ccid_usb.o
CSW                 0x10              ../../src/USB/usb_bot.o
SCSI_BlkLen         0x4               ../../src/USB/usb_bot.o
StatusInfo          0x2               ../../src/STM/Libraries/STM32_USB-FS-Device_Driver/src/usb_core.o
pInformation        0x4               ../../src/STM/Libraries/STM32_USB-FS-Device_Driver/src/usb_init.o
CCID_Device_Info    0x1c              ../../src/CCID/CCIDHID_USB/CCIDHID_usb_prop.o
ResumeS             0x2               ../../src/USB/usb_pwr.o
Bulk_Data_Buff      0x40              ../../src/USB/usb_bot.o
page_buffer         0x3e8             ../../src/CRYPT/hotp.o
ProcedureByte       0x1               ../../src/CCID/Crd.o
SC_A2R              0x2f              ../../src/CCID/SMARTCARD/smartcard.o
pCrdBuffer          0x4               ../../src/CCID/Crd.o
SC_Responce         0x16              ../../src/CCID/SMARTCARD/smartcard.o
CrdNbData           0x4               ../../src/CCID/Crd.o
HID_GetReport_Value
                    0x40              ../../src/CCID/CCIDHID_USB/CCIDHID_usb_prop.o
HID_GetReport_Value_tmp
                    0x40              ../../src/CCID/CCIDHID_USB/CCIDHID_usb_prop.o
HID_SetReport_Value_tmp
                    0x40              ../../src/CCID/CCIDHID_USB/CCIDHID_usb_prop.o
wInterrupt_Mask     0x2               ../../src/STM/Libraries/STM32_USB-FS-Device_Driver/src/usb_init.o

Memory Configuration

Name             Origin             Length             Attributes
RAM              0x0000000020000000 0x0000000000005000 xrw
FLASH            0x0000000008000000 0x0000000000020000 xr
FLASHB1          0x0000000000000000 0x0000000000000000 xr
EXTMEMB0         0x0000000000000000 0x0000000000000000 xr
EXTMEMB1         0x0000000000000000 0x0000000000000000 xr
EXTMEMB2         0x0000000000000000 0x0000000000000000 xr
EXTMEMB3         0x0000000000000000 0x0000000000000000 xr
*default*        0x0000000000000000 0xffffffffffffffff

Linker script and memory map

LOAD ../../src/main.o
LOAD ../../src/hw_config.o
LOAD ../../src/test_code.o
LOAD ../../src/memory_ops.o
LOAD ../../src/CCID/Ccid_usb.o
LOAD ../../src/CCID/Ifd_protocol.o
LOAD ../../src/CCID/Crd.o
LOAD ../../src/CCID/Ifd_ccid.o
LOAD ../../src/CCID/CcidLocalAccess.o
LOAD ../../src/CCID/SMARTCARD/smartcard.o
LOAD ../../src/CCID/CCIDHID_USB/CCIDHID_usb_prop.o
LOAD ../../src/CCID/CCIDHID_USB/CCIDHID_usb_desc.o
LOAD ../../src/SD_DISK/SD_USB/usb_desc.o
LOAD ../../src/SD_DISK/SD_USB/usb_prop.o
LOAD ../../src/STM/stm32f10x_systick.o
LOAD ../../src/STM/stm32f10x_it.o
LOAD ../../src/STM/Libraries/CMSIS/Core/CM3/core_cm3.o
LOAD ../../src/STM/Libraries/CMSIS/Core/CM3/system_stm32f10x.o
LOAD ../../src/STM/Libraries/CMSIS/Core/CM3/startup/gcc/startup_stm32f10x_hd.o
LOAD ../../src/STM/Libraries/STM32F10x_StdPeriph_Driver/src/misc.o
LOAD ../../src/STM/Libraries/STM32F10x_StdPeriph_Driver/src/stm32f10x_adc.o
LOAD ../../src/STM/Libraries/STM32F10x_StdPeriph_Driver/src/stm32f10x_bkp.o
LOAD ../../src/STM/Libraries/STM32F10x_StdPeriph_Driver/src/stm32f10x_can.o
LOAD ../../src/STM/Libraries/STM32F10x_StdPeriph_Driver/src/stm32f10x_crc.o
LOAD ../../src/STM/Libraries/STM32F10x_StdPeriph_Driver/src/stm32f10x_dac.o
LOAD ../../src/STM/Libraries/STM32F10x_StdPeriph_Driver/src/stm32f10x_dbgmcu.o
LOAD ../../src/STM/Libraries/STM32F10x_StdPeriph_Driver/src/stm32f10x_dma.o
LOAD ../../src/STM/Libraries/STM32F10x_StdPeriph_Driver/src/stm32f10x_exti.o
LOAD ../../src/STM/Libraries/STM32F10x_StdPeriph_Driver/src/stm32f10x_flash.o
LOAD ../../src/STM/Libraries/STM32F10x_StdPeriph_Driver/src/stm32f10x_fsmc.o
LOAD ../../src/STM/Libraries/STM32F10x_StdPeriph_Driver/src/stm32f10x_gpio.o
LOAD ../../src/STM/Libraries/STM32F10x_StdPeriph_Driver/src/stm32f10x_i2c.o
LOAD ../../src/STM/Libraries/STM32F10x_StdPeriph_Driver/src/stm32f10x_iwdg.o
LOAD ../../src/STM/Libraries/STM32F10x_StdPeriph_Driver/src/stm32f10x_pwr.o
LOAD ../../src/STM/Libraries/STM32F10x_StdPeriph_Driver/src/stm32f10x_rcc.o
LOAD ../../src/STM/Libraries/STM32F10x_StdPeriph_Driver/src/stm32f10x_rtc.o
LOAD ../../src/STM/Libraries/STM32F10x_StdPeriph_Driver/src/stm32f10x_sdio.o
LOAD ../../src/STM/Libraries/STM32F10x_StdPeriph_Driver/src/stm32f10x_spi.o
LOAD ../../src/STM/Libraries/STM32F10x_StdPeriph_Driver/src/stm32f10x_tim.o
LOAD ../../src/STM/Libraries/STM32F10x_StdPeriph_Driver/src/stm32f10x_usart.o
LOAD ../../src/STM/Libraries/STM32F10x_StdPeriph_Driver/src/stm32f10x_wwdg.o
LOAD ../../src/STM/Libraries/STM32_USB-FS-Device_Driver/src/usb_core.o
LOAD ../../src/STM/Libraries/STM32_USB-FS-Device_Driver/src/usb_init.o
LOAD ../../src/STM/Libraries/STM32_USB-FS-Device_Driver/src/usb_int.o
LOAD ../../src/STM/Libraries/STM32_USB-FS-Device_Driver/src/usb_mem.o
LOAD ../../src/STM/Libraries/STM32_USB-FS-Device_Driver/src/usb_regs.o
LOAD ../../src/CRYPT/AES/aes.o
LOAD ../../src/CRYPT/SHA1/sha1.o
LOAD ../../src/CRYPT/SHA1/hmac-sha1.o
LOAD ../../src/CRYPT/hotp.o
LOAD ../../src/KEYBOARD/keyboard.o
LOAD ../../src/KEYBOARD/report_protocol.o
LOAD ../../src/USB/usb_endp.o
LOAD ../../src/USB/usb_bot.o
LOAD ../../src/USB/usb_pwr.o
LOAD ../../src/USB/usb_istr.o
LOAD /usr/bin/../lib/gcc/arm-none-eabi/4.8.3/../../../../arm-none-eabi/lib/armv7-m/libc.a
LOAD /usr/bin/../lib/gcc/arm-none-eabi/4.8.3/../../../../arm-none-eabi/lib/armv7-m/libm.a
LOAD /usr/bin/../lib/gcc/arm-none-eabi/4.8.3/../../../../arm-none-eabi/lib/armv7-m/libc.a
LOAD /usr/bin/../lib/gcc/arm-none-eabi/4.8.3/armv7-m/libgcc.a
START GROUP
LOAD /usr/bin/../lib/gcc/arm-none-eabi/4.8.3/armv7-m/libgcc.a
LOAD /usr/bin/../lib/gcc/arm-none-eabi/4.8.3/../../../../arm-none-eabi/lib/armv7-m/libg.a
LOAD /usr/bin/../lib/gcc/arm-none-eabi/4.8.3/../../../../arm-none-eabi/lib/armv7-m/libc.a
END GROUP
                0x0000000000000400                __Stack_Size = 0x400
                0x0000000000000400                PROVIDE (_Stack_Size, __Stack_Size)
                0x0000000020004c00                __Stack_Init = (_estack - __Stack_Size)
                0x0000000020004c00                PROVIDE (_Stack_Init, __Stack_Init)
                0x0000000000000100                _Minimum_Stack_Size = 0x100
                0x0000000000000000                PROVIDE (Undefined_Handler, 0x0)
                0x0000000000000000                PROVIDE (SWI_Handler, 0x0)
                0x0000000000000000                PROVIDE (IRQ_Handler, 0x0)
                0x0000000000000000                PROVIDE (Prefetch_Handler, 0x0)
                0x0000000000000000                PROVIDE (Abort_Handler, 0x0)
                0x0000000000000000                PROVIDE (FIQ_Handler, 0x0)
                0x0000000000000000                PROVIDE (NMIException, 0x0)
                0x0000000000000000                PROVIDE (HardFaultException, 0x0)
                0x0000000000000000                PROVIDE (MemManageException, 0x0)
                0x0000000000000000                PROVIDE (BusFaultException, 0x0)
                0x0000000000000000                PROVIDE (UsageFaultException, 0x0)
                0x0000000000000000                PROVIDE (SVCHandler, 0x0)
                0x0000000000000000                PROVIDE (DebugMonitor, 0x0)
                0x0000000000000000                PROVIDE (PendSVC, 0x0)
                0x0000000000000000                PROVIDE (SysTickHandler, 0x0)
                0x0000000000000000                PROVIDE (WWDG_IRQHandler, 0x0)
                0x0000000000000000                PROVIDE (PVD_IRQHandler, 0x0)
                0x0000000000000000                PROVIDE (TAMPER_IRQHandler, 0x0)
                0x0000000000000000                PROVIDE (RTC_IRQHandler, 0x0)
                0x0000000000000000                PROVIDE (FLASH_IRQHandler, 0x0)
                0x0000000000000000                PROVIDE (RCC_IRQHandler, 0x0)
                0x0000000000000000                PROVIDE (EXTI0_IRQHandler, 0x0)
                0x0000000000000000                PROVIDE (EXTI1_IRQHandler, 0x0)
                0x0000000000000000                PROVIDE (EXTI2_IRQHandler, 0x0)
                0x0000000000000000                PROVIDE (EXTI3_IRQHandler, 0x0)
                0x0000000000000000                PROVIDE (EXTI4_IRQHandler, 0x0)
                0x0000000000000000                PROVIDE (DMAChannel1_IRQHandler, 0x0)
                0x0000000000000000                PROVIDE (DMAChannel2_IRQHandler, 0x0)
                0x0000000000000000                PROVIDE (DMAChannel3_IRQHandler, 0x0)
                0x0000000000000000                PROVIDE (DMAChannel4_IRQHandler, 0x0)
                0x0000000000000000                PROVIDE (DMAChannel5_IRQHandler, 0x0)
                0x0000000000000000                PROVIDE (DMAChannel6_IRQHandler, 0x0)
                0x0000000000000000                PROVIDE (DMAChannel7_IRQHandler, 0x0)
                0x0000000000000000                PROVIDE (ADC_IRQHandler, 0x0)
                0x0000000000000000                PROVIDE (USB_HP_CAN_TX_IRQHandler, 0x0)
                0x0000000000000000                PROVIDE (USB_LP_CAN_RX0_IRQHandler, 0x0)
                0x0000000000000000                PROVIDE (CAN_RX1_IRQHandler, 0x0)
                0x0000000000000000                PROVIDE (CAN_SCE_IRQHandler, 0x0)
                0x0000000000000000                PROVIDE (EXTI9_5_IRQHandler, 0x0)
                0x0000000000000000                PROVIDE (TIM1_BRK_IRQHandler, 0x0)
                0x0000000000000000                PROVIDE (TIM1_UP_IRQHandler, 0x0)
                0x0000000000000000                PROVIDE (TIM1_TRG_COM_IRQHandler, 0x0)
                0x0000000000000000                PROVIDE (TIM1_CC_IRQHandler, 0x0)
                0x0000000000000000                PROVIDE (TIM2_IRQHandler, 0x0)
                0x0000000000000000                PROVIDE (TIM3_IRQHandler, 0x0)
                0x0000000000000000                PROVIDE (TIM4_IRQHandler, 0x0)
                0x0000000000000000                PROVIDE (I2C1_EV_IRQHandler, 0x0)
                0x0000000000000000                PROVIDE (I2C1_ER_IRQHandler, 0x0)
                0x0000000000000000                PROVIDE (I2C2_EV_IRQHandler, 0x0)
                0x0000000000000000                PROVIDE (I2C2_ER_IRQHandler, 0x0)
                0x0000000000000000                PROVIDE (SPI1_IRQHandler, 0x0)
                0x0000000000000000                PROVIDE (SPI2_IRQHandler, 0x0)
                0x0000000000000000                PROVIDE (USART1_IRQHandler, 0x0)
                0x0000000000000000                PROVIDE (USART2_IRQHandler, 0x0)
                0x0000000000000000                PROVIDE (USART3_IRQHandler, 0x0)
                0x0000000000000000                PROVIDE (EXTI15_10_IRQHandler, 0x0)
                0x0000000000000000                PROVIDE (RTCAlarm_IRQHandler, 0x0)
                0x0000000000000000                PROVIDE (USBWakeUp_IRQHandler, 0x0)
                0x0000000042000000                PERIPH_BB_BASE = 0x42000000
                0x0000000022000000                SRAM_BB_BASE = 0x22000000
                0x0000000020000000                SRAM_BASE = 0x20000000
                0x0000000040000000                PERIPH_BASE = 0x40000000
                0x0000000040022000                PROVIDE (FLASH_BASE, 0x40022000)
                0x000000001ffff800                PROVIDE (OB_BASE, 0x1ffff800)
                0x0000000040000000                APB1PERIPH_BASE = PERIPH_BASE
                0x0000000040010000                APB2PERIPH_BASE = (PERIPH_BASE + 0x10000)
                0x0000000040020000                AHBPERIPH_BASE = (PERIPH_BASE + 0x20000)
                0x0000000040000000                PROVIDE (TIM2, (APB1PERIPH_BASE + 0x0))
                0x0000000040000400                PROVIDE (TIM3, (APB1PERIPH_BASE + 0x400))
                0x0000000040000800                PROVIDE (TIM4, (APB1PERIPH_BASE + 0x800))
                0x0000000040002800                PROVIDE (RTC, (APB1PERIPH_BASE + 0x2800))
                0x0000000040002c00                PROVIDE (WWDG, (APB1PERIPH_BASE + 0x2c00))
                0x0000000040003000                PROVIDE (IWDG, (APB1PERIPH_BASE + 0x3000))
                0x0000000040003800                PROVIDE (SPI2, (APB1PERIPH_BASE + 0x3800))
                0x0000000040004400                PROVIDE (USART2, (APB1PERIPH_BASE + 0x4400))
                0x0000000040004800                PROVIDE (USART3, (APB1PERIPH_BASE + 0x4800))
                0x0000000040005400                PROVIDE (I2C1, (APB1PERIPH_BASE + 0x5400))
                0x0000000040005800                PROVIDE (I2C2, (APB1PERIPH_BASE + 0x5800))
                0x0000000040006400                PROVIDE (CAN, (APB1PERIPH_BASE + 0x6400))
                0x0000000040006c00                PROVIDE (BKP, (APB1PERIPH_BASE + 0x6c00))
                0x0000000040007000                PROVIDE (PWR, (APB1PERIPH_BASE + 0x7000))
                0x0000000040010000                PROVIDE (AFIO, (APB2PERIPH_BASE + 0x0))
                0x0000000040010400                PROVIDE (EXTI, (APB2PERIPH_BASE + 0x400))
                0x0000000040010800                PROVIDE (GPIOA, (APB2PERIPH_BASE + 0x800))
                0x0000000040010c00                PROVIDE (GPIOB, (APB2PERIPH_BASE + 0xc00))
                0x0000000040011000                PROVIDE (GPIOC, (APB2PERIPH_BASE + 0x1000))
                0x0000000040011400                PROVIDE (GPIOD, (APB2PERIPH_BASE + 0x1400))
                0x0000000040011800                PROVIDE (GPIOE, (APB2PERIPH_BASE + 0x1800))
                0x0000000040012400                PROVIDE (ADC1, (APB2PERIPH_BASE + 0x2400))
                0x0000000040012800                PROVIDE (ADC2, (APB2PERIPH_BASE + 0x2800))
                0x0000000040012c00                PROVIDE (TIM1, (APB2PERIPH_BASE + 0x2c00))
                0x0000000040013000                PROVIDE (SPI1, (APB2PERIPH_BASE + 0x3000))
                0x0000000040013800                PROVIDE (USART1, (APB2PERIPH_BASE + 0x3800))
                0x0000000040020000                PROVIDE (DMA, (AHBPERIPH_BASE + 0x0))
                0x0000000040020008                PROVIDE (DMA_Channel1, (AHBPERIPH_BASE + 0x8))
                0x000000004002001c                PROVIDE (DMA_Channel2, (AHBPERIPH_BASE + 0x1c))
                0x0000000040020030                PROVIDE (DMA_Channel3, (AHBPERIPH_BASE + 0x30))
                0x0000000040020044                PROVIDE (DMA_Channel4, (AHBPERIPH_BASE + 0x44))
                0x0000000040020058                PROVIDE (DMA_Channel5, (AHBPERIPH_BASE + 0x58))
                0x000000004002006c                PROVIDE (DMA_Channel6, (AHBPERIPH_BASE + 0x6c))
                0x0000000040020080                PROVIDE (DMA_Channel7, (AHBPERIPH_BASE + 0x80))
                0x0000000040021000                PROVIDE (RCC, (AHBPERIPH_BASE + 0x1000))
                0x00000000e000e000                SCS_BASE = 0xe000e000
                0x00000000e000e010                PROVIDE (SysTick, (SCS_BASE + 0x10))
                0x00000000e000e100                PROVIDE (NVIC, (SCS_BASE + 0x100))
                0x00000000e000ed00                PROVIDE (SCB, (SCS_BASE + 0xd00))
                0x0000000020005000                _estack = 0x20005000

.isr_vector     0x0000000008000000      0x1e4
                0x0000000008000000                . = ALIGN (0x4)
 *(.isr_vector)
 .isr_vector    0x0000000008000000      0x1e4 ../../src/STM/Libraries/CMSIS/Core/CM3/startup/gcc/startup_stm32f10x_hd.o
                0x0000000008000000                g_pfnVectors
                0x00000000080001e4                . = ALIGN (0x4)

.flashtext      0x00000000080001e4        0x0
                0x00000000080001e4                . = ALIGN (0x4)
 *(.flashtext)
                0x00000000080001e4                . = ALIGN (0x4)

.text           0x00000000080001e4     0x9d70
                0x00000000080001e4                . = ALIGN (0x4)
 *(.text)
 .text          0x00000000080001e4       0x50 ../../src/main.o
                0x00000000080001e4                test2
                0x0000000008000204                Test1
 .text          0x0000000008000234      0x3b0 ../../src/hw_config.o
                0x0000000008000234                DisableFirmwareDownloadPort
                0x0000000008000264                DisableSmartcardLED
                0x0000000008000268                EnableSmartcardLED
                0x0000000008000298                EnableOATHLED
                0x00000000080002c8                EnableButton
                0x00000000080002f8                EnableTimer2
                0x000000000800035c                ReadButton
                0x0000000008000368                SwitchSmartcardLED
                0x0000000008000380                SwitchOATHLED
                0x0000000008000398                StartBlinkingOATHLED
                0x00000000080003a8                Set_USBClock
                0x00000000080003c0                Enter_LowPowerMode
                0x00000000080003cc                Leave_LowPowerMode
                0x00000000080003ec                USB_Interrupts_Config
                0x0000000008000448                USB_Cable_Config
                0x0000000008000464                HexToAscii
                0x0000000008000470                Get_SerialNum
                0x000000000800056c                RCC_Config
                0x0000000008000570                MAL_Config
                0x000000000800057c                USB_Disconnect_Config
                0x00000000080005b4                Set_System
 .text          0x00000000080005e4        0x0 ../../src/test_code.o
 .text          0x00000000080005e4       0x50 ../../src/memory_ops.o
                0x00000000080005e4                getu16
                0x00000000080005f0                getu32
                0x0000000008000608                getu64
 .text          0x0000000008000634      0x544 ../../src/CCID/Ccid_usb.o
                0x0000000008000634                CCID_Init
                0x0000000008000664                CCID_Init_IT
                0x00000000080006a4                CCID_Suspend_IT
                0x00000000080006e4                CCID_Bot_Abort
                0x0000000008000724                CCID_Storage_Out
                0x0000000008000748                CCID_BulkOutMessage
                0x0000000008000884                CCID_BulkInMessage
                0x000000000800097c                CCID_DispatchMessage
                0x0000000008000a30                CCID_IntMessage
                0x0000000008000b18                CcidClassRequestAbort
                0x0000000008000b1c                CcidClassRequestGetClockFrequencies
                0x0000000008000b20                CcidClassRequestGetDataRates
                0x0000000008000b24                CCID_SendCardDetect
                0x0000000008000b40                CCID_CheckUsbCommunication
                0x0000000008000b60                CCID_SetCardState
                0x0000000008000b6c                CCID_GetCardState
 .text          0x0000000008000b78      0x424 ../../src/CCID/Ifd_protocol.o
                0x0000000008000b78                IFD_Init
                0x0000000008000bc4                IFD_ApplyParametersStructure
                0x0000000008000c48                IFD_UpdateConvParameterStructure
                0x0000000008000c68                GetExpectedAnswerSizeFromAPDU
                0x0000000008000c94                IFD_XfrCharT0
                0x0000000008000d30                IFD_XfrBlock
                0x0000000008000dc4                IFD_XfrCharT1
                0x0000000008000dc8                IFD_XfrTpduT0
                0x0000000008000dcc                IFD_XfrTpduT1
                0x0000000008000dd0                IFD_GetParameters
                0x0000000008000dfc                IFD_SetParameters
                0x0000000008000eb4                IFD_EscapeSendHwName
                0x0000000008000ee0                IFD_Escape
                0x0000000008000f20                IFD_SetClock
                0x0000000008000f3c                IFD_SetATRData
 .text          0x0000000008000f9c      0x27c ../../src/CCID/Crd.o
                0x0000000008000f9c                CRD_Init
                0x0000000008000fa8                CRD_GetHwError
                0x0000000008000fd4                CRD_VccOn
                0x0000000008000ff4                CRD_VccOff
                0x0000000008000ff8                CRD_VccOff_IT
                0x0000000008000ffc                CRD_SetMode
                0x0000000008001000                CRD_SetConvention
                0x0000000008001004                CRD_GetSlotStatus
                0x0000000008001008                CRD_GetConvention
                0x000000000800100c                CRD_GetClockStatus
                0x0000000008001010                CRD_SetClock
                0x0000000008001014                CRD_SetEtu
                0x0000000008001024                CRD_SetGuardTime
                0x0000000008001028                CRD_SetWaitingTime
                0x000000000800102c                CRD_StartWaitingTime
                0x000000000800103c                CRD_StopWaitingTime
                0x0000000008001040                CRD_WaitingTime
                0x0000000008001058                CRD_InitReceive
                0x0000000008001088                CRD_CharRepeatOn
                0x000000000800108c                CRD_CharRepeatOff
                0x000000000800109c                CRD_EndReceive
                0x00000000080010a8                CRD_InitTransmit
                0x00000000080010d0                CRD_NumberOfBytesToTransmit
                0x00000000080010dc                CRD_EndTransmit
                0x00000000080010e8                ICC_ResetAsync
                0x0000000008001118                ICC_SendCommandAsync
                0x00000000080011a0                ICC_ReceiveAnswerAsync
 .text          0x0000000008001218      0x4d8 ../../src/CCID/Ifd_ccid.o
                0x0000000008001218                PC_to_RDR_IccPowerOn
                0x000000000800125c                PC_to_RDR_IccPowerOff
                0x0000000008001260                PC_to_RDR_GetSlotStatus
                0x00000000080012ac                PC_to_RDR_XfrBlock
                0x0000000008001330                PC_to_RDR_GetParameters
                0x0000000008001388                PC_to_RDR_ResetParameters
                0x00000000080013f0                PC_to_RDR_SetParameters
                0x0000000008001468                PC_to_RDR_Escape
                0x00000000080014ec                PC_to_RDR_IccClock
                0x0000000008001544                PC_to_RDR_Abort
                0x00000000080015a4                RDR_to_PC_DataBlock
                0x00000000080015d4                RDR_to_PC_SlotStatus
                0x0000000008001608                RDR_to_PC_SlotStatus_CardStopped
                0x000000000800161c                RDR_to_PC_Parameters
                0x0000000008001660                RDR_to_PC_Escape
                0x0000000008001690                CmdNotSupported
                0x00000000080016b0                RDR_to_PC_NotifySlotChange
                0x00000000080016cc                RDR_to_PC_HardwareError
 .text          0x00000000080016f0      0x47c ../../src/CCID/CcidLocalAccess.o
                0x00000000080016f0                InitSCTStruct
                0x00000000080016fc                GenerateCRC
                0x000000000800171c                GenerateTPDU
                0x0000000008001774                GenerateChainedTPDU
                0x00000000080017a0                SendTPDU
                0x0000000008001814                SendAPDU
                0x0000000008001858                CcidSelectOpenPGPApp
                0x000000000800189c                CcidGetData
                0x00000000080018c4                CcidVerifyPin
                0x0000000008001904                CcidDecipher
                0x0000000008001968                AccessTestGPG
                0x0000000008001a8c                CcidLocalAccessTest
                0x0000000008001aa8                getAID
                0x0000000008001ad4                getSerialNumber
                0x0000000008001b00                getByteOfData
                0x0000000008001b0c                cardAuthenticate
                0x0000000008001b38                getPasswordRetryCount
 .text          0x0000000008001b6c      0xd10 ../../src/CCID/SMARTCARD/smartcard.o
                0x0000000008001c38                GPIO_Configuration_Smartcard
                0x0000000008001c60                SmartcardOn
                0x0000000008001c7c                SmartcardOff
                0x0000000008001c98                Delay
                0x0000000008001ccc                Delay_noUSBCheck
                0x0000000008001cf8                SC_PowerCmd
                0x0000000008001d60                SC_Reset
                0x0000000008001d70                SC_ParityErrorHandler
                0x0000000008001d94                SC_SetHwParams
                0x0000000008001e14                SC_PTSConfig
                0x0000000008002050                SC_Init
                0x00000000080021ac                SC_Handler
                0x00000000080025c0                WaitForATR
                0x000000000800261c                CRD_SendCommand
                0x0000000008002720                InvalidateATR
                0x000000000800272c                initSCHardware
                0x0000000008002834                RestartSmartcard
                0x0000000008002850                SmartCardInitInterface
 .text          0x000000000800287c      0x488 ../../src/CCID/CCIDHID_USB/CCIDHID_usb_prop.o
                0x000000000800287c                USB_CCID_Storage_SetDeviceAddress
                0x0000000008002888                USB_CCID_Status_Out
                0x000000000800288c                USB_CCID_Data_Setup
                0x0000000008002924                USB_CCID_NoData_Setup
                0x000000000800294c                USB_CCID_Get_Interface_Setting
                0x000000000800295c                Keyboard_GetProtocolValue
                0x0000000008002974                Keyboard_GetReport_Feature
                0x00000000080029bc                Keyboard_SetReport_Feature
                0x00000000080029d4                Keyboard_SetReport_Output
                0x00000000080029ec                USB_CCID_init
                0x0000000008002a28                USB_CCID_Reset
                0x0000000008002b5c                USB_CCID_GetDeviceDescriptor
                0x0000000008002b68                USB_CCID_GetConfigDescriptor
                0x0000000008002b74                USB_CCID_GetStringDescriptor
                0x0000000008002b94                Keyboard_GetReportDescriptor
                0x0000000008002ba0                Keyboard_GetHIDDescriptor
                0x0000000008002bac                USB_CCID_Status_In
                0x0000000008002c98                USB_CCID_Storage_SetConfiguration
                0x0000000008002cd4                USB_CCID_Get_Max_Lun
                0x0000000008002cec                Keyboard_SetProtocol
 .text          0x0000000008002d04        0x0 ../../src/CCID/CCIDHID_USB/CCIDHID_usb_desc.o
 .text          0x0000000008002d04        0x0 ../../src/SD_DISK/SD_USB/usb_desc.o
 .text          0x0000000008002d04      0x278 ../../src/SD_DISK/SD_USB/usb_prop.o
                0x0000000008002d04                Mass_Storage_SetDeviceAddress
                0x0000000008002d10                MASS_Status_In
                0x0000000008002d14                MASS_Status_Out
                0x0000000008002d18                MASS_Get_Interface_Setting
                0x0000000008002d28                Get_Max_Lun
                0x0000000008002d40                MASS_init
                0x0000000008002d7c                MASS_Reset
                0x0000000008002e6c                Mass_Storage_ClearFeature
                0x0000000008002e88                MASS_GetDeviceDescriptor
                0x0000000008002e94                MASS_GetConfigDescriptor
                0x0000000008002ea0                MASS_GetStringDescriptor
                0x0000000008002ec4                Mass_Storage_SetConfiguration
                0x0000000008002ef4                MASS_NoData_Setup
                0x0000000008002f44                MASS_Data_Setup
 .text          0x0000000008002f7c       0x78 ../../src/STM/stm32f10x_systick.o
                0x0000000008002f7c                SysTick_SetReload
                0x0000000008002f88                SysTick_CounterCmd
                0x0000000008002fb0                SysTick_ITConfig
                0x0000000008002fcc                SysTick_GetCounter
                0x0000000008002fd8                SysTick_GetFlagStatus
 .text          0x0000000008002ff4       0xc0 ../../src/STM/stm32f10x_it.o
                0x0000000008002ff4                NMI_Handler
                0x0000000008002ff8                HardFault_Handler
                0x0000000008002ffc                MemManage_Handler
                0x0000000008003000                BusFault_Handler
                0x0000000008003004                UsageFault_Handler
                0x0000000008003008                SVC_Handler
                0x000000000800300c                DebugMon_Handler
                0x0000000008003010                PendSV_Handler
                0x0000000008003014                SysTick_Handler
                0x0000000008003028                USB_HP_CAN1_TX_IRQHandler
                0x000000000800302c                USB_LP_CAN1_RX0_IRQHandler
                0x0000000008003030                SDIO_IRQHandler
                0x0000000008003034                TIM2_IRQHandler
 .text          0x00000000080030b4       0xa4 ../../src/STM/Libraries/CMSIS/Core/CM3/core_cm3.o
                0x00000000080030b4                __get_PSP
                0x00000000080030bc                __set_PSP
                0x00000000080030c4                __get_MSP
                0x00000000080030cc                __set_MSP
                0x00000000080030d4                __get_BASEPRI
                0x00000000080030dc                __set_BASEPRI
                0x00000000080030e4                __get_PRIMASK
                0x00000000080030ec                __set_PRIMASK
                0x00000000080030f4                __get_FAULTMASK
                0x00000000080030fc                __set_FAULTMASK
                0x0000000008003104                __REV
                0x0000000008003108                __REV16
                0x000000000800310c                __REVSH
                0x0000000008003110                __RBIT
                0x0000000008003118                __LDREXB
                0x0000000008003120                __LDREXH
                0x0000000008003128                __LDREXW
                0x0000000008003130                __STREXB
                0x0000000008003138                __STREXH
                0x0000000008003140                __STREXW
                0x0000000008003148                __get_CONTROL
                0x0000000008003150                __set_CONTROL
 .text          0x0000000008003158       0xf8 ../../src/STM/Libraries/CMSIS/Core/CM3/system_stm32f10x.o
                0x0000000008003158                SystemInit
 .text          0x0000000008003250       0xdc ../../src/STM/Libraries/CMSIS/Core/CM3/startup/gcc/startup_stm32f10x_hd.o
                0x0000000008003250                EXTI2_IRQHandler
                0x0000000008003250                TIM8_TRG_COM_IRQHandler
                0x0000000008003250                TIM8_CC_IRQHandler
                0x0000000008003250                TIM1_CC_IRQHandler
                0x0000000008003250                TIM6_IRQHandler
                0x0000000008003250                PVD_IRQHandler
                0x0000000008003250                EXTI3_IRQHandler
                0x0000000008003250                EXTI0_IRQHandler
                0x0000000008003250                I2C2_EV_IRQHandler
                0x0000000008003250                ADC1_2_IRQHandler
                0x0000000008003250                SPI1_IRQHandler
                0x0000000008003250                TAMPER_IRQHandler
                0x0000000008003250                TIM8_UP_IRQHandler
                0x0000000008003250                DMA2_Channel2_IRQHandler
                0x0000000008003250                DMA1_Channel4_IRQHandler
                0x0000000008003250                USART3_IRQHandler
                0x0000000008003250                RTC_IRQHandler
                0x0000000008003250                DMA1_Channel7_IRQHandler
                0x0000000008003250                CAN1_RX1_IRQHandler
                0x0000000008003250                UART5_IRQHandler
                0x0000000008003250                ADC3_IRQHandler
                0x0000000008003250                TIM4_IRQHandler
                0x0000000008003250                DMA2_Channel1_IRQHandler
                0x0000000008003250                I2C1_EV_IRQHandler
                0x0000000008003250                DMA1_Channel6_IRQHandler
                0x0000000008003250                UART4_IRQHandler
                0x0000000008003250                TIM3_IRQHandler
                0x0000000008003250                RCC_IRQHandler
                0x0000000008003250                TIM1_TRG_COM_IRQHandler
                0x0000000008003250                DMA1_Channel1_IRQHandler
                0x0000000008003250                Default_Handler
                0x0000000008003250                EXTI15_10_IRQHandler
                0x0000000008003250                TIM7_IRQHandler
                0x0000000008003250                TIM5_IRQHandler
                0x0000000008003250                EXTI9_5_IRQHandler
                0x0000000008003250                SPI2_IRQHandler
                0x0000000008003250                DMA1_Channel5_IRQHandler
                0x0000000008003250                EXTI4_IRQHandler
                0x0000000008003250                DMA1_Channel3_IRQHandler
                0x0000000008003250                FSMC_IRQHandler
                0x0000000008003250                TIM1_UP_IRQHandler
                0x0000000008003250                WWDG_IRQHandler
                0x0000000008003250                TIM1_BRK_IRQHandler
                0x0000000008003250                EXTI1_IRQHandler
                0x0000000008003250                RTCAlarm_IRQHandler
                0x0000000008003250                DMA2_Channel4_5_IRQHandler
                0x0000000008003250                USART2_IRQHandler
                0x0000000008003250                I2C2_ER_IRQHandler
                0x0000000008003250                DMA1_Channel2_IRQHandler
                0x0000000008003250                TIM8_BRK_IRQHandler
                0x0000000008003250                CAN1_SCE_IRQHandler
                0x0000000008003250                FLASH_IRQHandler
                0x0000000008003250                USART1_IRQHandler
                0x0000000008003250                SPI3_IRQHandler
                0x0000000008003250                I2C1_ER_IRQHandler
                0x0000000008003250                USBWakeUp_IRQHandler
                0x0000000008003250                DMA2_Channel3_IRQHandler
                0x0000000008003254                __Init_Data
                0x00000000080032b0                SystemInit_ExtMemCtl_Dummy
                0x00000000080032b0                SystemInit_ExtMemCtl
                0x00000000080032b4                Reset_Handler
 .text          0x000000000800332c       0xc8 ../../src/STM/Libraries/STM32F10x_StdPeriph_Driver/src/misc.o
                0x000000000800332c                NVIC_PriorityGroupConfig
                0x0000000008003340                NVIC_Init
                0x00000000080033b0                NVIC_SetVectorTable
                0x00000000080033c4                NVIC_SystemLPConfig
                0x00000000080033dc                SysTick_CLKSourceConfig
 .text          0x00000000080033f4      0x37c ../../src/STM/Libraries/STM32F10x_StdPeriph_Driver/src/stm32f10x_adc.o
                0x00000000080033f4                ADC_DeInit
                0x000000000800345c                ADC_Init
                0x00000000080034a4                ADC_StructInit
                0x00000000080034b8                ADC_Cmd
                0x00000000080034cc                ADC_DMACmd
                0x00000000080034e0                ADC_ITConfig
                0x00000000080034f4                ADC_ResetCalibration
                0x0000000008003500                ADC_GetResetCalibrationStatus
                0x0000000008003508                ADC_StartCalibration
                0x0000000008003514                ADC_GetCalibrationStatus
                0x000000000800351c                ADC_SoftwareStartConvCmd
                0x0000000008003530                ADC_GetSoftwareStartConvStatus
                0x0000000008003538                ADC_DiscModeChannelCountConfig
                0x0000000008003548                ADC_DiscModeCmd
                0x000000000800355c                ADC_RegularChannelConfig
                0x00000000080035f8                ADC_ExternalTrigConvCmd
                0x000000000800360c                ADC_GetConversionValue
                0x0000000008003614                ADC_GetDualModeConversionValue
                0x0000000008003620                ADC_AutoInjectedConvCmd
                0x0000000008003634                ADC_InjectedDiscModeCmd
                0x0000000008003648                ADC_ExternalTrigInjectedConvConfig
                0x0000000008003654                ADC_ExternalTrigInjectedConvCmd
                0x0000000008003668                ADC_SoftwareStartInjectedConvCmd
                0x000000000800367c                ADC_GetSoftwareStartInjectedConvCmdStatus
                0x0000000008003684                ADC_InjectedChannelConfig
                0x00000000080036e0                ADC_InjectedSequencerLengthConfig
                0x00000000080036f0                ADC_SetInjectedOffset
                0x00000000080036f4                ADC_GetInjectedConversionValue
                0x00000000080036fc                ADC_AnalogWatchdogCmd
                0x000000000800370c                ADC_AnalogWatchdogThresholdsConfig
                0x0000000008003714                ADC_AnalogWatchdogSingleChannelConfig
                0x0000000008003720                ADC_TempSensorVrefintCmd
                0x000000000800373c                ADC_GetFlagStatus
                0x0000000008003748                ADC_ClearFlag
                0x0000000008003750                ADC_GetITStatus
                0x0000000008003768                ADC_ClearITPendingBit
 .text          0x0000000008003770       0xc4 ../../src/STM/Libraries/STM32F10x_StdPeriph_Driver/src/stm32f10x_bkp.o
                0x0000000008003770                BKP_DeInit
                0x0000000008003784                BKP_TamperPinLevelConfig
                0x0000000008003790                BKP_TamperPinCmd
                0x000000000800379c                BKP_ITConfig
                0x00000000080037a8                BKP_RTCOutputConfig
                0x00000000080037c0                BKP_SetRTCCalibrationValue
                0x00000000080037d8                BKP_WriteBackupRegister
                0x00000000080037e4                BKP_ReadBackupRegister
                0x00000000080037f4                BKP_GetFlagStatus
                0x0000000008003800                BKP_ClearFlag
                0x0000000008003814                BKP_GetITStatus
                0x0000000008003820                BKP_ClearITPendingBit
 .text          0x0000000008003834      0x614 ../../src/STM/Libraries/STM32F10x_StdPeriph_Driver/src/stm32f10x_can.o
                0x0000000008003834                CAN_DeInit
                0x000000000800385c                CAN_Init
                0x000000000800393c                CAN_FilterInit
                0x0000000008003a30                CAN_StructInit
                0x0000000008003a58                CAN_ITConfig
                0x0000000008003a6c                CAN_Transmit
                0x0000000008003b3c                CAN_TransmitStatus
                0x0000000008003bb0                CAN_CancelTransmit
                0x0000000008003bdc                CAN_FIFORelease
                0x0000000008003be8                CAN_MessagePending
                0x0000000008003c00                CAN_Receive
                0x0000000008003c90                CAN_DBGFreeze
                0x0000000008003ca4                CAN_Sleep
                0x0000000008003cc0                CAN_WakeUp
                0x0000000008003cec                CAN_GetFlagStatus
                0x0000000008003cf8                CAN_ClearFlag
                0x0000000008003d04                CAN_GetITStatus
                0x0000000008003da8                CAN_ClearITPendingBit
 .text          0x0000000008003e48       0x58 ../../src/STM/Libraries/STM32F10x_StdPeriph_Driver/src/stm32f10x_crc.o
                0x0000000008003e48                CRC_ResetDR
                0x0000000008003e54                CRC_CalcCRC
                0x0000000008003e60                CRC_CalcBlockCRC
                0x0000000008003e7c                CRC_GetCRC
                0x0000000008003e88                CRC_SetIDRegister
                0x0000000008003e94                CRC_GetIDRegister
 .text          0x0000000008003ea0      0x130 ../../src/STM/Libraries/STM32F10x_StdPeriph_Driver/src/stm32f10x_dac.o
                0x0000000008003ea0                DAC_DeInit
                0x0000000008003ebc                DAC_Init
                0x0000000008003eec                DAC_StructInit
                0x0000000008003ef8                DAC_Cmd
                0x0000000008003f18                DAC_DMACmd
                0x0000000008003f38                DAC_SoftwareTriggerCmd
                0x0000000008003f58                DAC_DualSoftwareTriggerCmd
                0x0000000008003f74                DAC_WaveGenerationCmd
                0x0000000008003f90                DAC_SetChannel1Data
                0x0000000008003f9c                DAC_SetChannel2Data
                0x0000000008003fa8                DAC_SetDualChannelData
                0x0000000008003fc0                DAC_GetDataOutputValue
 .text          0x0000000008003fd0       0x34 ../../src/STM/Libraries/STM32F10x_StdPeriph_Driver/src/stm32f10x_dbgmcu.o
                0x0000000008003fd0                DBGMCU_GetREVID
                0x0000000008003fdc                DBGMCU_GetDEVID
                0x0000000008003fec                DBGMCU_Config
 .text          0x0000000008004004      0x204 ../../src/STM/Libraries/STM32F10x_StdPeriph_Driver/src/stm32f10x_dma.o
                0x0000000008004004                DMA_DeInit
                0x000000000800411c                DMA_Init
                0x000000000800415c                DMA_StructInit
                0x0000000008004178                DMA_Cmd
                0x000000000800418c                DMA_ITConfig
                0x00000000080041a0                DMA_GetCurrDataCounter
                0x00000000080041a8                DMA_GetFlagStatus
                0x00000000080041c4                DMA_ClearFlag
                0x00000000080041d8                DMA_GetITStatus
                0x00000000080041f4                DMA_ClearITPendingBit
 .text          0x0000000008004208      0x104 ../../src/STM/Libraries/STM32F10x_StdPeriph_Driver/src/stm32f10x_exti.o
                0x0000000008004208                EXTI_DeInit
                0x0000000008004224                EXTI_Init
                0x00000000080042a4                EXTI_StructInit
                0x00000000080042b4                EXTI_GenerateSWInterrupt
                0x00000000080042c4                EXTI_GetFlagStatus
                0x00000000080042d8                EXTI_ClearFlag
                0x00000000080042e4                EXTI_GetITStatus
                0x0000000008004300                EXTI_ClearITPendingBit
 .text          0x000000000800430c      0x4b4 ../../src/STM/Libraries/STM32F10x_StdPeriph_Driver/src/stm32f10x_flash.o
                0x000000000800430c                FLASH_SetLatency
                0x0000000008004320                FLASH_HalfCycleAccessCmd
                0x0000000008004338                FLASH_PrefetchBufferCmd
                0x0000000008004350                FLASH_Unlock
                0x0000000008004368                FLASH_Lock
                0x0000000008004378                FLASH_GetUserOptionByte
                0x0000000008004384                FLASH_GetWriteProtectionOptionByte
                0x0000000008004390                FLASH_GetReadOutProtectionStatus
                0x00000000080043a0                FLASH_GetPrefetchBufferStatus
                0x00000000080043b0                FLASH_ITConfig
                0x00000000080043c8                FLASH_GetFlagStatus
                0x00000000080043e8                FLASH_ClearFlag
                0x00000000080043f4                FLASH_GetStatus
                0x000000000800441c                FLASH_WaitForLastOperation
                0x0000000008004464                FLASH_ErasePage
                0x00000000080044a8                FLASH_EraseAllPages
                0x00000000080044e8                FLASH_EraseOptionBytes
                0x0000000008004564                FLASH_ProgramWord
                0x00000000080045b4                FLASH_ProgramHalfWord
                0x00000000080045ec                FLASH_ProgramOptionByteData
                0x0000000008004634                FLASH_EnableWriteProtection
                0x00000000080046d4                FLASH_ReadOutProtection
                0x0000000008004768                FLASH_UserOptionByteConfig
 .text          0x00000000080047c0      0x4a0 ../../src/STM/Libraries/STM32F10x_StdPeriph_Driver/src/stm32f10x_fsmc.o
                0x00000000080047c0                FSMC_NORSRAMDeInit
                0x00000000080047f8                FSMC_NANDDeInit
                0x000000000800481c                FSMC_PCCARDDeInit
                0x0000000008004838                FSMC_NORSRAMInit
                0x00000000080048f4                FSMC_NANDInit
                0x0000000008004970                FSMC_PCCARDInit
                0x00000000080049d8                FSMC_NORSRAMStructInit
                0x0000000008004a2c                FSMC_NANDStructInit
                0x0000000008004a5c                FSMC_PCCARDStructInit
                0x0000000008004a8c                FSMC_NORSRAMCmd
                0x0000000008004aac                FSMC_NANDCmd
                0x0000000008004ae0                FSMC_PCCARDCmd
                0x0000000008004b04                FSMC_NANDECCCmd
                0x0000000008004b38                FSMC_GetECC
                0x0000000008004b4c                FSMC_ITConfig
                0x0000000008004ba0                FSMC_GetFlagStatus
                0x0000000008004bcc                FSMC_ClearFlag
                0x0000000008004bfc                FSMC_GetITStatus
                0x0000000008004c30                FSMC_ClearITPendingBit
 .text          0x0000000008004c60      0x2c8 ../../src/STM/Libraries/STM32F10x_StdPeriph_Driver/src/stm32f10x_gpio.o
                0x0000000008004c60                GPIO_DeInit
                0x0000000008004d34                GPIO_AFIODeInit
                0x0000000008004d4c                GPIO_Init
                0x0000000008004e10                GPIO_StructInit
                0x0000000008004e20                GPIO_ReadInputDataBit
                0x0000000008004e2c                GPIO_ReadInputData
                0x0000000008004e34                GPIO_ReadOutputDataBit
                0x0000000008004e40                GPIO_ReadOutputData
                0x0000000008004e48                GPIO_SetBits
                0x0000000008004e4c                GPIO_ResetBits
                0x0000000008004e50                GPIO_WriteBit
                0x0000000008004e5c                GPIO_Write
                0x0000000008004e60                GPIO_PinLockConfig
                0x0000000008004e70                GPIO_EventOutputConfig
                0x0000000008004e90                GPIO_EventOutputCmd
                0x0000000008004e9c                GPIO_PinRemapConfig
                0x0000000008004efc                GPIO_EXTILineConfig
 .text          0x0000000008004f28      0x400 ../../src/STM/Libraries/STM32F10x_StdPeriph_Driver/src/stm32f10x_i2c.o
                0x0000000008004f28                I2C_DeInit
                0x0000000008004f70                I2C_Init
                0x000000000800504c                I2C_StructInit
                0x0000000008005070                I2C_Cmd
                0x000000000800508c                I2C_DMACmd
                0x00000000080050a8                I2C_DMALastTransferCmd
                0x00000000080050c4                I2C_GenerateSTART
                0x00000000080050e0                I2C_GenerateSTOP
                0x00000000080050fc                I2C_AcknowledgeConfig
                0x0000000008005118                I2C_OwnAddress2Config
                0x000000000800512c                I2C_DualAddressCmd
                0x0000000008005148                I2C_GeneralCallCmd
                0x0000000008005164                I2C_ITConfig
                0x0000000008005178                I2C_SendData
                0x000000000800517c                I2C_ReceiveData
                0x0000000008005184                I2C_Send7bitAddress
                0x0000000008005198                I2C_ReadRegister
                0x00000000080051a8                I2C_SoftwareResetCmd
                0x00000000080051c4                I2C_SMBusAlertConfig
                0x00000000080051e4                I2C_TransmitPEC
                0x0000000008005200                I2C_PECPositionConfig
                0x0000000008005220                I2C_CalculatePEC
                0x000000000800523c                I2C_GetPEC
                0x0000000008005244                I2C_ARPCmd
                0x0000000008005260                I2C_StretchClockCmd
                0x000000000800527c                I2C_FastModeDutyCycleConfig
                0x000000000800529c                I2C_GetLastEvent
                0x00000000080052ac                I2C_CheckEvent
                0x00000000080052c4                I2C_GetFlagStatus
                0x00000000080052fc                I2C_ClearFlag
                0x0000000008005304                I2C_GetITStatus
                0x0000000008005320                I2C_ClearITPendingBit
 .text          0x0000000008005328       0x58 ../../src/STM/Libraries/STM32F10x_StdPeriph_Driver/src/stm32f10x_iwdg.o
                0x0000000008005328                IWDG_WriteAccessCmd
                0x0000000008005334                IWDG_SetPrescaler
                0x0000000008005340                IWDG_SetReload
                0x000000000800534c                IWDG_ReloadCounter
                0x000000000800535c                IWDG_Enable
                0x000000000800536c                IWDG_GetFlagStatus
 .text          0x0000000008005380       0xd4 ../../src/STM/Libraries/STM32F10x_StdPeriph_Driver/src/stm32f10x_pwr.o
                0x0000000008005380                PWR_DeInit
                0x000000000800539c                PWR_BackupAccessCmd
                0x00000000080053a8                PWR_PVDCmd
                0x00000000080053b4                PWR_PVDLevelConfig
                0x00000000080053c8                PWR_WakeUpPinCmd
                0x00000000080053d4                PWR_EnterSTOPMode
                0x0000000008005408                PWR_EnterSTANDBYMode
                0x0000000008005430                PWR_GetFlagStatus
                0x0000000008005444                PWR_ClearFlag
 .text          0x0000000008005454      0x368 ../../src/STM/Libraries/STM32F10x_StdPeriph_Driver/src/stm32f10x_rcc.o
                0x0000000008005454                RCC_DeInit
                0x0000000008005490                RCC_HSEConfig
                0x00000000080054c8                RCC_WaitForHSEStartUp
                0x00000000080054fc                RCC_AdjustHSICalibrationValue
                0x0000000008005510                RCC_HSICmd
                0x000000000800551c                RCC_PLLConfig
                0x0000000008005530                RCC_PLLCmd
                0x000000000800553c                RCC_SYSCLKConfig
                0x0000000008005550                RCC_GetSYSCLKSource
                0x0000000008005560                RCC_HCLKConfig
                0x0000000008005574                RCC_PCLK1Config
                0x0000000008005588                RCC_PCLK2Config
                0x000000000800559c                RCC_ITConfig
                0x00000000080055b4                RCC_USBCLKConfig
                0x00000000080055c0                RCC_ADCCLKConfig
                0x00000000080055d4                RCC_LSEConfig
                0x00000000080055f4                RCC_LSICmd
                0x0000000008005600                RCC_RTCCLKConfig
                0x0000000008005610                RCC_RTCCLKCmd
                0x000000000800561c                RCC_GetClocksFreq
                0x00000000080056bc                RCC_AHBPeriphClockCmd
                0x00000000080056d4                RCC_APB2PeriphClockCmd
                0x00000000080056ec                RCC_APB1PeriphClockCmd
                0x0000000008005704                RCC_APB2PeriphResetCmd
                0x000000000800571c                RCC_APB1PeriphResetCmd
                0x0000000008005734                RCC_BackupResetCmd
                0x0000000008005740                RCC_ClockSecuritySystemCmd
                0x000000000800574c                RCC_MCOConfig
                0x0000000008005758                RCC_GetFlagStatus
                0x000000000800578c                RCC_ClearFlag
                0x000000000800579c                RCC_GetITStatus
                0x00000000080057b0                RCC_ClearITPendingBit
 .text          0x00000000080057bc      0x170 ../../src/STM/Libraries/STM32F10x_StdPeriph_Driver/src/stm32f10x_rtc.o
                0x00000000080057bc                RTC_ITConfig
                0x00000000080057d8                RTC_EnterConfigMode
                0x00000000080057ec                RTC_ExitConfigMode
                0x0000000008005800                RTC_GetCounter
                0x0000000008005814                RTC_SetCounter
                0x000000000800583c                RTC_SetPrescaler
                0x0000000008005864                RTC_SetAlarm
                0x000000000800588c                RTC_GetDivider
                0x00000000080058a4                RTC_WaitForLastTask
                0x00000000080058b4                RTC_WaitForSynchro
                0x00000000080058d0                RTC_GetFlagStatus
                0x00000000080058e4                RTC_ClearFlag
                0x00000000080058f8                RTC_GetITStatus
                0x0000000008005918                RTC_ClearITPendingBit
 .text          0x000000000800592c      0x228 ../../src/STM/Libraries/STM32F10x_StdPeriph_Driver/src/stm32f10x_sdio.o
                0x000000000800592c                SDIO_DeInit
                0x0000000008005950                SDIO_Init
                0x0000000008005980                SDIO_StructInit
                0x0000000008005990                SDIO_ClockCmd
                0x000000000800599c                SDIO_SetPowerState
                0x00000000080059b4                SDIO_GetPowerState
                0x00000000080059c4                SDIO_ITConfig
                0x00000000080059dc                SDIO_DMACmd
                0x00000000080059e8                SDIO_SendCommand
                0x0000000008005a14                SDIO_CmdStructInit
                0x0000000008005a24                SDIO_GetCommandResponse
                0x0000000008005a30                SDIO_GetResponse
                0x0000000008005a3c                SDIO_DataConfig
                0x0000000008005a68                SDIO_DataStructInit
                0x0000000008005a7c                SDIO_GetDataCounter
                0x0000000008005a88                SDIO_ReadData
                0x0000000008005a94                SDIO_WriteData
                0x0000000008005aa0                SDIO_GetFIFOCount
                0x0000000008005aac                SDIO_StartSDIOReadWait
                0x0000000008005ab8                SDIO_StopSDIOReadWait
                0x0000000008005ac4                SDIO_SetSDIOReadWaitMode
                0x0000000008005ad0                SDIO_SetSDIOOperation
                0x0000000008005adc                SDIO_SendSDIOSuspendCmd
                0x0000000008005ae8                SDIO_CommandCompletionCmd
                0x0000000008005af4                SDIO_CEATAITCmd
                0x0000000008005b08                SDIO_SendCEATACmd
                0x0000000008005b14                SDIO_GetFlagStatus
                0x0000000008005b28                SDIO_ClearFlag
                0x0000000008005b34                SDIO_GetITStatus
                0x0000000008005b48                SDIO_ClearITPendingBit
 .text          0x0000000008005b54      0x2fc ../../src/STM/Libraries/STM32F10x_StdPeriph_Driver/src/stm32f10x_spi.o
                0x0000000008005b54                SPI_I2S_DeInit
                0x0000000008005bbc                SPI_Init
                0x0000000008005bfc                I2S_Init
                0x0000000008005cac                SPI_StructInit
                0x0000000008005cc4                I2S_StructInit
                0x0000000008005cd8                SPI_Cmd
                0x0000000008005cf4                I2S_Cmd
                0x0000000008005d10                SPI_I2S_ITConfig
                0x0000000008005d30                SPI_I2S_DMACmd
                0x0000000008005d44                SPI_I2S_SendData
                0x0000000008005d48                SPI_I2S_ReceiveData
                0x0000000008005d50                SPI_NSSInternalSoftwareConfig
                0x0000000008005d70                SPI_SSOutputCmd
                0x0000000008005d8c                SPI_DataSizeConfig
                0x0000000008005da4                SPI_TransmitCRC
                0x0000000008005db0                SPI_CalculateCRC
                0x0000000008005dcc                SPI_GetCRC
                0x0000000008005dd8                SPI_GetCRCPolynomial
                0x0000000008005de0                SPI_BiDirectionalLineConfig
                0x0000000008005e00                SPI_I2S_GetFlagStatus
                0x0000000008005e0c                SPI_I2S_ClearFlag
                0x0000000008005e14                SPI_I2S_GetITStatus
                0x0000000008005e40                SPI_I2S_ClearITPendingBit
 .text          0x0000000008005e50      0xcb0 ../../src/STM/Libraries/STM32F10x_StdPeriph_Driver/src/stm32f10x_tim.o
                0x0000000008005e50                TIM_DeInit
                0x0000000008005f48                TIM_TimeBaseInit
                0x0000000008005f90                TIM_OC1Init
                0x0000000008006014                TIM_OC2Init
                0x00000000080060a8                TIM_OC3Init
                0x0000000008006138                TIM_OC4Init
                0x00000000080061a8                TIM_ICInit
                0x0000000008006310                TIM_PWMIConfig
                0x0000000008006460                TIM_BDTRConfig
                0x0000000008006488                TIM_TimeBaseStructInit
                0x000000000800649c                TIM_OCStructInit
                0x00000000080064b0                TIM_ICStructInit
                0x00000000080064c0                TIM_BDTRStructInit
                0x00000000080064d4                TIM_Cmd
                0x00000000080064f0                TIM_CtrlPWMOutputs
                0x0000000008006510                TIM_ITConfig
                0x0000000008006524                TIM_GenerateEvent
                0x0000000008006528                TIM_DMAConfig
                0x0000000008006530                TIM_DMACmd
                0x0000000008006544                TIM_InternalClockConfig
                0x0000000008006554                TIM_ITRxExternalClockConfig
                0x0000000008006570                TIM_TIxExternalClockConfig
                0x00000000080065f8                TIM_ETRClockMode1Config
                0x0000000008006620                TIM_ETRClockMode2Config
                0x0000000008006644                TIM_ETRConfig
                0x000000000800665c                TIM_PrescalerConfig
                0x0000000008006664                TIM_CounterModeConfig
                0x0000000008006674                TIM_SelectInputTrigger
                0x0000000008006684                TIM_EncoderInterfaceConfig
                0x00000000080066c4                TIM_ForcedOC1Config
                0x00000000080066d4                TIM_ForcedOC2Config
                0x00000000080066e8                TIM_ForcedOC3Config
                0x00000000080066f8                TIM_ForcedOC4Config
                0x000000000800670c                TIM_ARRPreloadConfig
                0x0000000008006728                TIM_SelectCOM
                0x0000000008006744                TIM_SelectCCDMA
                0x0000000008006760                TIM_CCPreloadControl
                0x000000000800677c                TIM_OC1PreloadConfig
                0x000000000800678c                TIM_OC2PreloadConfig
                0x00000000080067a0                TIM_OC3PreloadConfig
                0x00000000080067b0                TIM_OC4PreloadConfig
                0x00000000080067c4                TIM_OC1FastConfig
                0x00000000080067d4                TIM_OC2FastConfig
                0x00000000080067e8                TIM_OC3FastConfig
                0x00000000080067f8                TIM_OC4FastConfig
                0x000000000800680c                TIM_ClearOC1Ref
                0x000000000800681c                TIM_ClearOC2Ref
                0x000000000800682c                TIM_ClearOC3Ref
                0x000000000800683c                TIM_ClearOC4Ref
                0x000000000800684c                TIM_OC1PolarityConfig
                0x000000000800685c                TIM_OC1NPolarityConfig
                0x000000000800686c                TIM_OC2PolarityConfig
                0x0000000008006880                TIM_OC2NPolarityConfig
                0x0000000008006894                TIM_OC3PolarityConfig
                0x00000000080068a8                TIM_OC3NPolarityConfig
                0x00000000080068bc                TIM_OC4PolarityConfig
                0x00000000080068d0                TIM_CCxCmd
                0x00000000080068ec                TIM_CCxNCmd
                0x0000000008006908                TIM_SelectOCxM
                0x0000000008006958                TIM_UpdateDisableConfig
                0x0000000008006974                TIM_UpdateRequestConfig
                0x0000000008006990                TIM_SelectHallSensor
                0x00000000080069ac                TIM_SelectOnePulseMode
                0x00000000080069c0                TIM_SelectOutputTrigger
                0x00000000080069d8                TIM_SelectSlaveMode
                0x00000000080069f0                TIM_SelectMasterSlaveMode
                0x0000000008006a08                TIM_SetCounter
                0x0000000008006a0c                TIM_SetAutoreload
                0x0000000008006a10                TIM_SetCompare1
                0x0000000008006a14                TIM_SetCompare2
                0x0000000008006a18                TIM_SetCompare3
                0x0000000008006a1c                TIM_SetCompare4
                0x0000000008006a24                TIM_SetIC1Prescaler
                0x0000000008006a3c                TIM_SetIC2Prescaler
                0x0000000008006a58                TIM_SetIC3Prescaler
                0x0000000008006a70                TIM_SetIC4Prescaler
                0x0000000008006a8c                TIM_SetClockDivision
                0x0000000008006a9c                TIM_GetCapture1
                0x0000000008006aa4                TIM_GetCapture2
                0x0000000008006aac                TIM_GetCapture3
                0x0000000008006ab4                TIM_GetCapture4
                0x0000000008006abc                TIM_GetCounter
                0x0000000008006ac4                TIM_GetPrescaler
                0x0000000008006acc                TIM_GetFlagStatus
                0x0000000008006ad8                TIM_ClearFlag
                0x0000000008006ae0                TIM_GetITStatus
                0x0000000008006af8                TIM_ClearITPendingBit
 .text          0x0000000008006b00      0x3ac ../../src/STM/Libraries/STM32F10x_StdPeriph_Driver/src/stm32f10x_usart.o
                0x0000000008006b00                USART_DeInit
                0x0000000008006bac                USART_Init
                0x0000000008006c3c                USART_StructInit
                0x0000000008006c54                USART_ClockInit
                0x0000000008006c78                USART_ClockStructInit
                0x0000000008006c84                USART_Cmd
                0x0000000008006ca0                USART_ITConfig
                0x0000000008006cdc                USART_DMACmd
                0x0000000008006cf0                USART_SetAddress
                0x0000000008006d08                USART_WakeUpConfig
                0x0000000008006d20                USART_ReceiverWakeUpCmd
                0x0000000008006d3c                USART_LINBreakDetectLengthConfig
                0x0000000008006d54                USART_LINCmd
                0x0000000008006d70                USART_SendData
                0x0000000008006d78                USART_ReceiveData
                0x0000000008006d80                USART_SendBreak
                0x0000000008006d8c                USART_SetGuardTime
                0x0000000008006da0                USART_SetPrescaler
                0x0000000008006db4                USART_SmartCardCmd
                0x0000000008006dd0                USART_SmartCardNACKCmd
                0x0000000008006dec                USART_HalfDuplexCmd
                0x0000000008006e08                USART_IrDAConfig
                0x0000000008006e20                USART_IrDACmd
                0x0000000008006e3c                USART_GetFlagStatus
                0x0000000008006e48                USART_ClearFlag
                0x0000000008006e50                USART_GetITStatus
                0x0000000008006e9c                USART_ClearITPendingBit
 .text          0x0000000008006eac       0x8c ../../src/STM/Libraries/STM32F10x_StdPeriph_Driver/src/stm32f10x_wwdg.o
                0x0000000008006eac                WWDG_DeInit
                0x0000000008006ec8                WWDG_SetPrescaler
                0x0000000008006edc                WWDG_SetWindowValue
                0x0000000008006ef4                WWDG_EnableIT
                0x0000000008006f00                WWDG_SetCounter
                0x0000000008006f10                WWDG_Enable
                0x0000000008006f20                WWDG_GetFlagStatus
                0x0000000008006f2c                WWDG_ClearFlag
 .text          0x0000000008006f38      0x91c ../../src/STM/Libraries/STM32_USB-FS-Device_Driver/src/usb_core.o
                0x0000000008006f38                Standard_GetConfiguration
                0x0000000008006f60                Standard_GetInterface
                0x0000000008007040                Standard_GetStatus
                0x00000000080070c0                Standard_SetConfiguration
                0x00000000080070fc                Standard_SetInterface
                0x000000000800714c                Standard_ClearFeature
                0x0000000008007224                Standard_SetEndPointFeature
                0x00000000080072b4                Standard_SetDeviceFeature
                0x00000000080072d8                Standard_GetDescriptorData
                0x00000000080072f4                Post0_Process
                0x0000000008007338                Setup0_Process
                0x00000000080076bc                Out0_Process
                0x00000000080077a4                SetDeviceAddress
                0x00000000080077e0                In0_Process
                0x0000000008007850                NOP_Process
 .text          0x0000000008007854       0xd0 ../../src/STM/Libraries/STM32_USB-FS-Device_Driver/src/usb_init.o
                0x0000000008007854                USB_SetDeviceConfiguration
                0x00000000080078e8                USB_Init
 .text          0x0000000008007924      0x1e0 ../../src/STM/Libraries/STM32_USB-FS-Device_Driver/src/usb_int.o
                0x0000000008007924                CTR_LP
                0x0000000008007a90                CTR_HP
 .text          0x0000000008007b04       0x5c ../../src/STM/Libraries/STM32_USB-FS-Device_Driver/src/usb_mem.o
                0x0000000008007b04                UserToPMABufferCopy
                0x0000000008007b40                PMAToUserBufferCopy
 .text          0x0000000008007b60      0x7a4 ../../src/STM/Libraries/STM32_USB-FS-Device_Driver/src/usb_regs.o
                0x0000000008007b60                SetCNTR
                0x0000000008007b6c                GetCNTR
                0x0000000008007b78                SetISTR
                0x0000000008007b84                GetISTR
                0x0000000008007b90                GetFNR
                0x0000000008007b9c                SetDADDR
                0x0000000008007ba8                GetDADDR
                0x0000000008007bb4                SetBTABLE
                0x0000000008007bc4                GetBTABLE
                0x0000000008007bd0                SetENDPOINT
                0x0000000008007be0                GetENDPOINT
                0x0000000008007bf0                SetEPType
                0x0000000008007c0c                GetEPType
                0x0000000008007c20                SetEPTxStatus
                0x0000000008007c4c                SetEPRxStatus
                0x0000000008007c78                SetDouBleBuffEPStall
                0x0000000008007ca4                GetEPTxStatus
                0x0000000008007cb8                GetEPRxStatus
                0x0000000008007ccc                SetEPTxValid
                0x0000000008007cec                SetEPRxValid
                0x0000000008007d0c                SetEP_KIND
                0x0000000008007d2c                ClearEP_KIND
                0x0000000008007d44                Clear_Status_Out
                0x0000000008007d5c                Set_Status_Out
                0x0000000008007d7c                SetEPDoubleBuff
                0x0000000008007d9c                ClearEPDoubleBuff
                0x0000000008007db4                GetTxStallStatus
                0x0000000008007dd0                GetRxStallStatus
                0x0000000008007dec                ClearEP_CTR_RX
                0x0000000008007e04                ClearEP_CTR_TX
                0x0000000008007e1c                ToggleDTOG_RX
                0x0000000008007e38                ToggleDTOG_TX
                0x0000000008007e54                ClearDTOG_RX
                0x0000000008007e74                ClearDTOG_TX
                0x0000000008007e94                SetEPAddress
                0x0000000008007eac                GetEPAddress
                0x0000000008007ec0                SetEPTxAddr
                0x0000000008007ee0                SetEPRxAddr
                0x0000000008007f00                GetEPTxAddr
                0x0000000008007f1c                GetEPRxAddr
                0x0000000008007f38                SetEPTxCount
                0x0000000008007f54                SetEPCountRxReg
                0x0000000008007f7c                SetEPRxCount
                0x0000000008007fc0                GetEPTxCount
                0x0000000008007fe0                GetEPRxCount
                0x0000000008008000                SetEPDblBuffAddr
                0x000000000800803c                SetEPDblBuf0Addr
                0x000000000800805c                SetEPDblBuf1Addr
                0x000000000800807c                GetEPDblBuf0Addr
                0x0000000008008098                GetEPDblBuf1Addr
                0x00000000080080b4                SetEPDblBuffCount
                0x000000000800816c                SetEPDblBuf0Count
                0x00000000080081cc                SetEPDblBuf1Count
                0x000000000800822c                GetEPDblBuf0Count
                0x000000000800824c                GetEPDblBuf1Count
                0x000000000800826c                GetEPDblBufDir
                0x00000000080082b0                FreeUserBuffer
                0x00000000080082f0                ToWord
                0x00000000080082f8                ByteSwap
 .text          0x0000000008008304        0x0 ../../src/CRYPT/AES/aes.o
 .text          0x0000000008008304      0x308 ../../src/CRYPT/SHA1/sha1.o
                0x0000000008008304                ch
                0x0000000008008310                maj
                0x000000000800831c                parity
                0x0000000008008324                sha1_init
                0x000000000800835c                sha1_nextBlock
                0x00000000080084a8                sha1_lastBlock
                0x0000000008008574                sha1_ctx2hash
                0x0000000008008584                sha1
 .text          0x000000000800860c      0x1b4 ../../src/CRYPT/SHA1/hmac-sha1.o
                0x000000000800860c                hmac_sha1_init
                0x0000000008008684                hmac_sha1_nextBlock
                0x0000000008008688                hmac_sha1_lastBlock
                0x00000000080086c8                hmac_sha1_final
                0x00000000080086ec                hmac_sha1
 .text          0x00000000080087c0      0x44c ../../src/CRYPT/hotp.o
                0x00000000080087c0                endian_swap
                0x00000000080087cc                dynamic_truncate
                0x00000000080087f0                write_data_to_flash
                0x0000000008008820                get_hotp_value
                0x0000000008008894                get_counter_value
                0x00000000080088b8                set_counter_value
                0x00000000080088fc                increment_counter_page
                0x00000000080089f8                get_code_from_hotp_slot
                0x0000000008008a78                backup_data
                0x0000000008008abc                write_to_slot
                0x0000000008008b28                check_backups
                0x0000000008008b90                get_hotp_slot_config
                0x0000000008008ba8                get_totp_slot_config
                0x0000000008008bc4                get_code_from_totp_slot
 .text          0x0000000008008c0c      0x220 ../../src/KEYBOARD/keyboard.o
                0x0000000008008c40                sendChar
                0x0000000008008cc0                sendEnter
                0x0000000008008cf8                sendKeys
                0x0000000008008d0c                sendNumber
                0x0000000008008d94                sendNumberN
                0x0000000008008e10                sendString
 .text          0x0000000008008e2c      0x44c ../../src/KEYBOARD/report_protocol.o
                0x0000000008008e2c                cmd_get_status
                0x0000000008008e68                cmd_get_password_retry_count
                0x0000000008008e78                cmd_write_to_slot
                0x0000000008008f34                cmd_read_slot_name
                0x0000000008008f9c                cmd_read_slot
                0x0000000008008fa0                cmd_get_code
                0x0000000008009040                cmd_write_config
                0x0000000008009064                cmd_erase_slot
                0x00000000080090b8                cmd_first_authenticate
                0x000000000800912c                cmd_authorize
                0x0000000008009168                parse_report
 .text          0x0000000008009278       0x24 ../../src/USB/usb_endp.o
                0x0000000008009278                EP1_IN_Callback
                0x000000000800927c                EP2_OUT_Callback
                0x0000000008009280                EP2_IN_Callback
                0x0000000008009284                XEP3_IN_Callback
                0x0000000008009290                EP4_IN_Callback
 .text          0x000000000800929c       0xc8 ../../src/USB/usb_bot.o
                0x000000000800929c                Mass_Storage_In
                0x00000000080092a0                Mass_Storage_Out
                0x00000000080092a4                CBW_Decode
                0x00000000080092a8                Transfer_Data_Request
                0x00000000080092e0                Set_CSW
                0x0000000008009324                Bot_Abort
 .text          0x0000000008009364      0x168 ../../src/USB/usb_pwr.o
                0x0000000008009364                PowerOn
                0x0000000008009394                PowerOff
                0x00000000080093b8                Suspend
                0x00000000080093d8                Resume_Init
                0x00000000080093f8                Resume
                0x00000000080094b0                USB_Start
 .text          0x00000000080094cc       0xe4 ../../src/USB/usb_istr.o
                0x00000000080094cc                USB_Istr
 .text          0x00000000080095b0        0x0 /usr/bin/../lib/gcc/arm-none-eabi/4.8.3/../../../../arm-none-eabi/lib/armv7-m/libc.a(lib_a-memcmp.o)
 .text          0x00000000080095b0       0xec /usr/bin/../lib/gcc/arm-none-eabi/4.8.3/../../../../arm-none-eabi/lib/armv7-m/libc.a(lib_a-memcpy.o)
                0x00000000080095b0                memcpy
 .text          0x000000000800969c        0x0 /usr/bin/../lib/gcc/arm-none-eabi/4.8.3/../../../../arm-none-eabi/lib/armv7-m/libc.a(lib_a-memmove.o)
 .text          0x000000000800969c        0x0 /usr/bin/../lib/gcc/arm-none-eabi/4.8.3/../../../../arm-none-eabi/lib/armv7-m/libc.a(lib_a-memset.o)
 .text          0x000000000800969c       0x1c /usr/bin/../lib/gcc/arm-none-eabi/4.8.3/../../../../arm-none-eabi/lib/armv7-m/libc.a(lib_a-setjmp.o)
                0x000000000800969c                setjmp
                0x00000000080096a8                longjmp
 .text          0x00000000080096b8        0x0 /usr/bin/../lib/gcc/arm-none-eabi/4.8.3/../../../../arm-none-eabi/lib/armv7-m/libc.a(lib_a-strcpy.o)
 .text          0x00000000080096b8        0x0 /usr/bin/../lib/gcc/arm-none-eabi/4.8.3/../../../../arm-none-eabi/lib/armv7-m/libc.a(lib_a-strlen.o)
 *(.text.*)
 .text.startup  0x00000000080096b8      0x1d4 ../../src/main.o
                0x00000000080096b8                main
 .text.memcmp   0x000000000800988c       0x68 /usr/bin/../lib/gcc/arm-none-eabi/4.8.3/../../../../arm-none-eabi/lib/armv7-m/libc.a(lib_a-memcmp.o)
                0x000000000800988c                memcmp
 .text.memmove  0x00000000080098f4       0xcc /usr/bin/../lib/gcc/arm-none-eabi/4.8.3/../../../../arm-none-eabi/lib/armv7-m/libc.a(lib_a-memmove.o)
                0x00000000080098f4                memmove
 .text.memset   0x00000000080099c0       0x94 /usr/bin/../lib/gcc/arm-none-eabi/4.8.3/../../../../arm-none-eabi/lib/armv7-m/libc.a(lib_a-memset.o)
                0x00000000080099c0                memset
 .text.strcpy   0x0000000008009a54       0xbc /usr/bin/../lib/gcc/arm-none-eabi/4.8.3/../../../../arm-none-eabi/lib/armv7-m/libc.a(lib_a-strcpy.o)
                0x0000000008009a54                strcpy
 .text.strlen   0x0000000008009b10       0x60 /usr/bin/../lib/gcc/arm-none-eabi/4.8.3/../../../../arm-none-eabi/lib/armv7-m/libc.a(lib_a-strlen.o)
                0x0000000008009b10                strlen
 *(.rodata)
 .rodata        0x0000000008009b70       0x80 ../../src/CCID/Ifd_protocol.o
                0x0000000008009b70                Dmul64vsDI
                0x0000000008009bb0                FvsFI
 .rodata        0x0000000008009bf0       0x8c ../../src/CCID/CcidLocalAccess.o
 .rodata        0x0000000008009c7c       0x98 ../../src/CCID/SMARTCARD/smartcard.o
                0x0000000008009cfc                CHV1
                0x0000000008009d04                IMSI
                0x0000000008009d08                ICCID
                0x0000000008009d0c                GSMDir
                0x0000000008009d10                MasterRoot
 .rodata        0x0000000008009d14      0x140 ../../src/CCID/CCIDHID_USB/CCIDHID_usb_desc.o
                0x0000000008009d14                CCID_StringInterface
                0x0000000008009d24                CCID_StringProduct
                0x0000000008009d48                CCID_StringVendor
                0x0000000008009d7c                CCID_StringLangID
                0x0000000008009d80                Keyboard_ReportDescriptor
                0x0000000008009dc8                CCID_ConfigDescriptor
                0x0000000008009e40                CCID_DeviceDescriptor
 .rodata        0x0000000008009e54       0xa8 ../../src/SD_DISK/SD_USB/usb_desc.o
                0x0000000008009e54                MASS_StringInterface
                0x0000000008009e74                MASS_StringProduct
                0x0000000008009eac                MASS_StringVendor
                0x0000000008009ec4                MASS_StringLangID
                0x0000000008009ec8                MASS_ConfigDescriptor
                0x0000000008009ee8                MASS_DeviceDescriptor
 .rodata        0x0000000008009efc       0x14 ../../src/STM/Libraries/CMSIS/Core/CM3/system_stm32f10x.o
                0x0000000008009efc                SystemFrequency_APB2Clk
                0x0000000008009f00                SystemFrequency_APB1Clk
                0x0000000008009f04                SystemFrequency_AHBClk
                0x0000000008009f08                SystemFrequency_SysClk
                0x0000000008009f0c                SystemFrequency
 .rodata        0x0000000008009f10        0x8 ../../src/STM/Libraries/STM32F10x_StdPeriph_Driver/src/stm32f10x_can.o
 .rodata        0x0000000008009f18       0x20 ../../src/CRYPT/SHA1/sha1.o
 *(.rodata*)
 .rodata.str1.4
                0x0000000008009f38       0x13 ../../src/CCID/Ifd_protocol.o
                                         0x14 (size before relaxing)
 *fill*         0x0000000008009f4b        0x1 
 .rodata.str1.4
                0x0000000008009f4c        0x8 ../../src/CCID/CcidLocalAccess.o
 *(.glue_7)
 .glue_7        0x0000000000000000        0x0 linker stubs
 *(.glue_7t)
 .glue_7t       0x0000000000000000        0x0 linker stubs
                0x0000000008009f54                . = ALIGN (0x4)
                0x0000000008009f54                _etext = .
                0x0000000008009f54                _sidata = _etext

.vfp11_veneer   0x0000000008009f54        0x0
 .vfp11_veneer  0x0000000000000000        0x0 linker stubs

.v4_bx          0x0000000008009f54        0x0
 .v4_bx         0x0000000000000000        0x0 linker stubs

.iplt           0x0000000008009f54        0x0
 .iplt          0x0000000000000000        0x0 ../../src/main.o

.rel.dyn        0x0000000008009f54        0x0
 .rel.iplt      0x0000000000000000        0x0 ../../src/main.o

.data           0x0000000020000000      0x260 load address 0x0000000008009f54
                0x0000000020000000                . = ALIGN (0x4)
                0x0000000020000000                _sdata = .
 *(.data)
 .data          0x0000000020000000        0x8 ../../src/main.o
                0x0000000020000000                nFlagSendSMCardInserted
                0x0000000020000004                nGlobalStickState
 .data          0x0000000020000008        0x0 ../../src/hw_config.o
 .data          0x0000000020000008        0x0 ../../src/test_code.o
 .data          0x0000000020000008        0x0 ../../src/memory_ops.o
 .data          0x0000000020000008        0x0 ../../src/CCID/Ccid_usb.o
 .data          0x0000000020000008        0x0 ../../src/CCID/Ifd_protocol.o
 .data          0x0000000020000008        0x0 ../../src/CCID/Crd.o
 .data          0x0000000020000008        0x0 ../../src/CCID/Ifd_ccid.o
 .data          0x0000000020000008        0x0 ../../src/CCID/CcidLocalAccess.o
 .data          0x0000000020000008        0x8 ../../src/CCID/SMARTCARD/smartcard.o
 .data          0x0000000020000010       0xa0 ../../src/CCID/CCIDHID_USB/CCIDHID_usb_prop.o
                0x0000000020000010                Keyboard_Report_Descriptor
                0x0000000020000018                Keyboard_Hid_Descriptor
                0x0000000020000020                CCID_String_Descriptor
                0x0000000020000048                CCID_Config_Descriptor
                0x0000000020000050                CCID_Device_Descriptor
                0x0000000020000058                CCID_User_Standard_Requests
                0x000000002000007c                CCID_Device_Property
                0x00000000200000ac                CCID_Device_Table
 .data          0x00000000200000b0       0x34 ../../src/CCID/CCIDHID_USB/CCIDHID_usb_desc.o
                0x00000000200000b0                CCID_StringSerial
 .data          0x00000000200000e4       0x34 ../../src/SD_DISK/SD_USB/usb_desc.o
                0x00000000200000e4                MASS_StringSerial
 .data          0x0000000020000118       0xb8 ../../src/SD_DISK/SD_USB/usb_prop.o
                0x0000000020000118                Device_Property
                0x000000002000011c                Device_Descriptor
                0x0000000020000120                Config_Descriptor
                0x0000000020000124                String_Descriptor
                0x0000000020000138                User_Standard_Requests
                0x000000002000013c                Device_Table
                0x0000000020000140                MASS_String_Descriptor
                0x0000000020000168                MASS_Config_Descriptor
                0x0000000020000170                MASS_Device_Descriptor
                0x0000000020000178                MASS_User_Standard_Requests
                0x000000002000019c                MASS_Device_Property
                0x00000000200001cc                MASS_Device_Table
 .data          0x00000000200001d0        0x0 ../../src/STM/stm32f10x_systick.o
 .data          0x00000000200001d0        0x0 ../../src/STM/stm32f10x_it.o
 .data          0x00000000200001d0        0x0 ../../src/STM/Libraries/CMSIS/Core/CM3/core_cm3.o
 .data          0x00000000200001d0        0x0 ../../src/STM/Libraries/CMSIS/Core/CM3/system_stm32f10x.o
 .data          0x00000000200001d0        0x0 ../../src/STM/Libraries/CMSIS/Core/CM3/startup/gcc/startup_stm32f10x_hd.o
 .data          0x00000000200001d0        0x0 ../../src/STM/Libraries/STM32F10x_StdPeriph_Driver/src/misc.o
 .data          0x00000000200001d0        0x0 ../../src/STM/Libraries/STM32F10x_StdPeriph_Driver/src/stm32f10x_adc.o
 .data          0x00000000200001d0        0x0 ../../src/STM/Libraries/STM32F10x_StdPeriph_Driver/src/stm32f10x_bkp.o
 .data          0x00000000200001d0        0x0 ../../src/STM/Libraries/STM32F10x_StdPeriph_Driver/src/stm32f10x_can.o
 .data          0x00000000200001d0        0x0 ../../src/STM/Libraries/STM32F10x_StdPeriph_Driver/src/stm32f10x_crc.o
 .data          0x00000000200001d0        0x0 ../../src/STM/Libraries/STM32F10x_StdPeriph_Driver/src/stm32f10x_dac.o
 .data          0x00000000200001d0        0x0 ../../src/STM/Libraries/STM32F10x_StdPeriph_Driver/src/stm32f10x_dbgmcu.o
 .data          0x00000000200001d0        0x0 ../../src/STM/Libraries/STM32F10x_StdPeriph_Driver/src/stm32f10x_dma.o
 .data          0x00000000200001d0        0x0 ../../src/STM/Libraries/STM32F10x_StdPeriph_Driver/src/stm32f10x_exti.o
 .data          0x00000000200001d0        0x0 ../../src/STM/Libraries/STM32F10x_StdPeriph_Driver/src/stm32f10x_flash.o
 .data          0x00000000200001d0        0x0 ../../src/STM/Libraries/STM32F10x_StdPeriph_Driver/src/stm32f10x_fsmc.o
 .data          0x00000000200001d0        0x0 ../../src/STM/Libraries/STM32F10x_StdPeriph_Driver/src/stm32f10x_gpio.o
 .data          0x00000000200001d0        0x0 ../../src/STM/Libraries/STM32F10x_StdPeriph_Driver/src/stm32f10x_i2c.o
 .data          0x00000000200001d0        0x0 ../../src/STM/Libraries/STM32F10x_StdPeriph_Driver/src/stm32f10x_iwdg.o
 .data          0x00000000200001d0        0x0 ../../src/STM/Libraries/STM32F10x_StdPeriph_Driver/src/stm32f10x_pwr.o
 .data          0x00000000200001d0       0x14 ../../src/STM/Libraries/STM32F10x_StdPeriph_Driver/src/stm32f10x_rcc.o
 .data          0x00000000200001e4        0x0 ../../src/STM/Libraries/STM32F10x_StdPeriph_Driver/src/stm32f10x_rtc.o
 .data          0x00000000200001e4        0x0 ../../src/STM/Libraries/STM32F10x_StdPeriph_Driver/src/stm32f10x_sdio.o
 .data          0x00000000200001e4        0x0 ../../src/STM/Libraries/STM32F10x_StdPeriph_Driver/src/stm32f10x_spi.o
 .data          0x00000000200001e4        0x0 ../../src/STM/Libraries/STM32F10x_StdPeriph_Driver/src/stm32f10x_tim.o
 .data          0x00000000200001e4        0x0 ../../src/STM/Libraries/STM32F10x_StdPeriph_Driver/src/stm32f10x_usart.o
 .data          0x00000000200001e4        0x0 ../../src/STM/Libraries/STM32F10x_StdPeriph_Driver/src/stm32f10x_wwdg.o
 .data          0x00000000200001e4        0x0 ../../src/STM/Libraries/STM32_USB-FS-Device_Driver/src/usb_core.o
 .data          0x00000000200001e4        0x0 ../../src/STM/Libraries/STM32_USB-FS-Device_Driver/src/usb_init.o
 .data          0x00000000200001e4        0x0 ../../src/STM/Libraries/STM32_USB-FS-Device_Driver/src/usb_int.o
 .data          0x00000000200001e4        0x0 ../../src/STM/Libraries/STM32_USB-FS-Device_Driver/src/usb_mem.o
 .data          0x00000000200001e4        0x0 ../../src/STM/Libraries/STM32_USB-FS-Device_Driver/src/usb_regs.o
 .data          0x00000000200001e4        0x0 ../../src/CRYPT/AES/aes.o
 .data          0x00000000200001e4        0x0 ../../src/CRYPT/SHA1/sha1.o
 .data          0x00000000200001e4        0x0 ../../src/CRYPT/SHA1/hmac-sha1.o
 .data          0x00000000200001e4       0x38 ../../src/CRYPT/hotp.o
                0x00000000200001e4                hotp_slots
                0x00000000200001ec                hotp_slot_counters
                0x00000000200001f4                totp_slots
                0x0000000020000204                totp_slot_offsets
                0x0000000020000214                hotp_slot_offsets
 .data          0x000000002000021c        0x1 ../../src/KEYBOARD/keyboard.o
                0x000000002000021c                PrevXferComplete
 *fill*         0x000000002000021d        0x3 
 .data          0x0000000020000220        0x4 ../../src/KEYBOARD/report_protocol.o
                0x0000000020000220                authorized_crc
 .data          0x0000000020000224        0x0 ../../src/USB/usb_endp.o
 .data          0x0000000020000224        0x0 ../../src/USB/usb_bot.o
 .data          0x0000000020000224        0x1 ../../src/USB/usb_pwr.o
                0x0000000020000224                fSuspendEnabled
 *fill*         0x0000000020000225        0x3 
 .data          0x0000000020000228       0x38 ../../src/USB/usb_istr.o
                0x0000000020000228                pEpInt_OUT
                0x0000000020000244                pEpInt_IN
 .data          0x0000000020000260        0x0 /usr/bin/../lib/gcc/arm-none-eabi/4.8.3/../../../../arm-none-eabi/lib/armv7-m/libc.a(lib_a-memcmp.o)
 .data          0x0000000020000260        0x0 /usr/bin/../lib/gcc/arm-none-eabi/4.8.3/../../../../arm-none-eabi/lib/armv7-m/libc.a(lib_a-memcpy.o)
 .data          0x0000000020000260        0x0 /usr/bin/../lib/gcc/arm-none-eabi/4.8.3/../../../../arm-none-eabi/lib/armv7-m/libc.a(lib_a-memmove.o)
 .data          0x0000000020000260        0x0 /usr/bin/../lib/gcc/arm-none-eabi/4.8.3/../../../../arm-none-eabi/lib/armv7-m/libc.a(lib_a-memset.o)
 .data          0x0000000020000260        0x0 /usr/bin/../lib/gcc/arm-none-eabi/4.8.3/../../../../arm-none-eabi/lib/armv7-m/libc.a(lib_a-setjmp.o)
 .data          0x0000000020000260        0x0 /usr/bin/../lib/gcc/arm-none-eabi/4.8.3/../../../../arm-none-eabi/lib/armv7-m/libc.a(lib_a-strcpy.o)
 .data          0x0000000020000260        0x0 /usr/bin/../lib/gcc/arm-none-eabi/4.8.3/../../../../arm-none-eabi/lib/armv7-m/libc.a(lib_a-strlen.o)
 *(.data.*)
                0x0000000020000260                . = ALIGN (0x4)
                0x0000000020000260                _edata = .

.igot.plt       0x0000000020000260        0x0 load address 0x000000000800a1b4
 .igot.plt      0x0000000000000000        0x0 ../../src/main.o

.bss            0x0000000020000260      0xb40 load address 0x000000000800a1b8
                0x0000000020000260                . = ALIGN (0x4)
                0x0000000020000260                _sbss = .
 *(.bss)
 .bss           0x0000000020000260       0x10 ../../src/main.o
                0x0000000020000264                device_status
                0x0000000020000268                currentTime
 .bss           0x0000000020000270       0x10 ../../src/hw_config.o
                0x0000000020000270                blinkOATHLEDTimes
                0x0000000020000274                cardSerial
                0x0000000020000278                lastOATHBlinkTime
 .bss           0x0000000020000280        0x0 ../../src/test_code.o
 .bss           0x0000000020000280        0x0 ../../src/memory_ops.o
 .bss           0x0000000020000280       0x14 ../../src/CCID/Ccid_usb.o
                0x0000000020000290                SlotStabilizationDelay
 .bss           0x0000000020000294       0x18 ../../src/CCID/Ifd_protocol.o
 .bss           0x00000000200002ac        0x0 ../../src/CCID/Crd.o
 .bss           0x00000000200002ac        0x0 ../../src/CCID/Ifd_ccid.o
 .bss           0x00000000200002ac      0x20c ../../src/CCID/CcidLocalAccess.o
 .bss           0x00000000200004b8       0x20 ../../src/CCID/SMARTCARD/smartcard.o
                0x00000000200004b9                SC_ATR_Length
                0x00000000200004bc                IMSI_Content
                0x00000000200004c8                ICCID_Content
                0x00000000200004d4                CHV1Status
 .bss           0x00000000200004d8       0x38 ../../src/CCID/CCIDHID_USB/CCIDHID_usb_prop.o
                0x00000000200004d8                Request
                0x00000000200004d9                RequestType
                0x00000000200004da                lastLEDState
                0x00000000200004e0                lastNumLockChange
                0x00000000200004e8                numLockClicked
                0x00000000200004f0                lastCapsLockChange
                0x00000000200004f8                capsLockClicked
                0x0000000020000500                lastScrollLockChange
                0x0000000020000508                scrollLockClicked
 .bss           0x0000000020000510        0x0 ../../src/CCID/CCIDHID_USB/CCIDHID_usb_desc.o
 .bss           0x0000000020000510        0x0 ../../src/SD_DISK/SD_USB/usb_desc.o
 .bss           0x0000000020000510        0x4 ../../src/SD_DISK/SD_USB/usb_prop.o
                0x0000000020000510                Max_Lun
 .bss           0x0000000020000514        0x0 ../../src/STM/stm32f10x_systick.o
 .bss           0x0000000020000514        0x4 ../../src/STM/stm32f10x_it.o
                0x0000000020000514                TimingDelay
 .bss           0x0000000020000518        0x0 ../../src/STM/Libraries/CMSIS/Core/CM3/core_cm3.o
 .bss           0x0000000020000518        0x0 ../../src/STM/Libraries/CMSIS/Core/CM3/system_stm32f10x.o
 .bss           0x0000000020000518        0x0 ../../src/STM/Libraries/CMSIS/Core/CM3/startup/gcc/startup_stm32f10x_hd.o
 .bss           0x0000000020000518        0x0 ../../src/STM/Libraries/STM32F10x_StdPeriph_Driver/src/misc.o
 .bss           0x0000000020000518        0x0 ../../src/STM/Libraries/STM32F10x_StdPeriph_Driver/src/stm32f10x_adc.o
 .bss           0x0000000020000518        0x0 ../../src/STM/Libraries/STM32F10x_StdPeriph_Driver/src/stm32f10x_bkp.o
 .bss           0x0000000020000518        0x0 ../../src/STM/Libraries/STM32F10x_StdPeriph_Driver/src/stm32f10x_can.o
 .bss           0x0000000020000518        0x0 ../../src/STM/Libraries/STM32F10x_StdPeriph_Driver/src/stm32f10x_crc.o
 .bss           0x0000000020000518        0x0 ../../src/STM/Libraries/STM32F10x_StdPeriph_Driver/src/stm32f10x_dac.o
 .bss           0x0000000020000518        0x0 ../../src/STM/Libraries/STM32F10x_StdPeriph_Driver/src/stm32f10x_dbgmcu.o
 .bss           0x0000000020000518        0x0 ../../src/STM/Libraries/STM32F10x_StdPeriph_Driver/src/stm32f10x_dma.o
 .bss           0x0000000020000518        0x0 ../../src/STM/Libraries/STM32F10x_StdPeriph_Driver/src/stm32f10x_exti.o
 .bss           0x0000000020000518        0x0 ../../src/STM/Libraries/STM32F10x_StdPeriph_Driver/src/stm32f10x_flash.o
 .bss           0x0000000020000518        0x0 ../../src/STM/Libraries/STM32F10x_StdPeriph_Driver/src/stm32f10x_fsmc.o
 .bss           0x0000000020000518        0x0 ../../src/STM/Libraries/STM32F10x_StdPeriph_Driver/src/stm32f10x_gpio.o
 .bss           0x0000000020000518        0x0 ../../src/STM/Libraries/STM32F10x_StdPeriph_Driver/src/stm32f10x_i2c.o
 .bss           0x0000000020000518        0x0 ../../src/STM/Libraries/STM32F10x_StdPeriph_Driver/src/stm32f10x_iwdg.o
 .bss           0x0000000020000518        0x0 ../../src/STM/Libraries/STM32F10x_StdPeriph_Driver/src/stm32f10x_pwr.o
 .bss           0x0000000020000518        0x0 ../../src/STM/Libraries/STM32F10x_StdPeriph_Driver/src/stm32f10x_rcc.o
 .bss           0x0000000020000518        0x0 ../../src/STM/Libraries/STM32F10x_StdPeriph_Driver/src/stm32f10x_rtc.o
 .bss           0x0000000020000518        0x0 ../../src/STM/Libraries/STM32F10x_StdPeriph_Driver/src/stm32f10x_sdio.o
 .bss           0x0000000020000518        0x0 ../../src/STM/Libraries/STM32F10x_StdPeriph_Driver/src/stm32f10x_spi.o
 .bss           0x0000000020000518        0x0 ../../src/STM/Libraries/STM32F10x_StdPeriph_Driver/src/stm32f10x_tim.o
 .bss           0x0000000020000518        0x0 ../../src/STM/Libraries/STM32F10x_StdPeriph_Driver/src/stm32f10x_usart.o
 .bss           0x0000000020000518        0x0 ../../src/STM/Libraries/STM32F10x_StdPeriph_Driver/src/stm32f10x_wwdg.o
 .bss           0x0000000020000518        0x1 ../../src/STM/Libraries/STM32_USB-FS-Device_Driver/src/usb_core.o
                0x0000000020000518                Data_Mul_MaxPacketSize
 .bss           0x0000000020000519        0x0 ../../src/STM/Libraries/STM32_USB-FS-Device_Driver/src/usb_init.o
 .bss           0x0000000020000519        0x0 ../../src/STM/Libraries/STM32_USB-FS-Device_Driver/src/usb_int.o
 .bss           0x0000000020000519        0x0 ../../src/STM/Libraries/STM32_USB-FS-Device_Driver/src/usb_mem.o
 .bss           0x0000000020000519        0x0 ../../src/STM/Libraries/STM32_USB-FS-Device_Driver/src/usb_regs.o
 .bss           0x0000000020000519        0x0 ../../src/CRYPT/AES/aes.o
 .bss           0x0000000020000519        0x0 ../../src/CRYPT/SHA1/sha1.o
 .bss           0x0000000020000519        0x0 ../../src/CRYPT/SHA1/hmac-sha1.o
 .bss           0x0000000020000519        0x0 ../../src/CRYPT/hotp.o
 *fill*         0x0000000020000519        0x3 
 .bss           0x000000002000051c        0x8 ../../src/KEYBOARD/keyboard.o
                0x000000002000051c                keyboardBuffer
 .bss           0x0000000020000524        0x1 ../../src/KEYBOARD/report_protocol.o
                0x0000000020000524                tmp_password_set
 .bss           0x0000000020000525        0x0 ../../src/USB/usb_endp.o
 .bss           0x0000000020000525        0x0 ../../src/USB/usb_bot.o
 *fill*         0x0000000020000525        0x3 
 .bss           0x0000000020000528        0x4 ../../src/USB/usb_pwr.o
                0x0000000020000528                bDeviceState
 .bss           0x000000002000052c        0x1 ../../src/USB/usb_istr.o
                0x000000002000052c                bIntPackSOF
 .bss           0x000000002000052d        0x0 /usr/bin/../lib/gcc/arm-none-eabi/4.8.3/../../../../arm-none-eabi/lib/armv7-m/libc.a(lib_a-memcmp.o)
 .bss           0x000000002000052d        0x0 /usr/bin/../lib/gcc/arm-none-eabi/4.8.3/../../../../arm-none-eabi/lib/armv7-m/libc.a(lib_a-memcpy.o)
 .bss           0x000000002000052d        0x0 /usr/bin/../lib/gcc/arm-none-eabi/4.8.3/../../../../arm-none-eabi/lib/armv7-m/libc.a(lib_a-memmove.o)
 .bss           0x000000002000052d        0x0 /usr/bin/../lib/gcc/arm-none-eabi/4.8.3/../../../../arm-none-eabi/lib/armv7-m/libc.a(lib_a-memset.o)
 .bss           0x000000002000052d        0x0 /usr/bin/../lib/gcc/arm-none-eabi/4.8.3/../../../../arm-none-eabi/lib/armv7-m/libc.a(lib_a-setjmp.o)
 .bss           0x000000002000052d        0x0 /usr/bin/../lib/gcc/arm-none-eabi/4.8.3/../../../../arm-none-eabi/lib/armv7-m/libc.a(lib_a-strcpy.o)
 .bss           0x000000002000052d        0x0 /usr/bin/../lib/gcc/arm-none-eabi/4.8.3/../../../../arm-none-eabi/lib/armv7-m/libc.a(lib_a-strlen.o)
 *(COMMON)
 *fill*         0x000000002000052d        0x3 
 COMMON         0x0000000020000530       0x5c ../../src/main.o
                0x0000000020000530                jmpRestartUSB
 COMMON         0x000000002000058c      0x16a ../../src/CCID/Ccid_usb.o
                0x000000002000058c                UsbIntMessageBuffer
                0x0000000020000590                UsbMessageFlags
                0x0000000020000594                UsbMessageBuffer
                0x00000000200006f4                AbortSequenceNumber
                0x00000000200006f5                BulkStatus
 *fill*         0x00000000200006f6        0x2 
 COMMON         0x00000000200006f8       0x14 ../../src/CCID/Crd.o
                0x00000000200006f8                InstructionByte
                0x00000000200006f9                CrdFlags
                0x00000000200006fc                CrdBufferSize
                0x0000000020000700                ProcedureByte
                0x0000000020000704                pCrdBuffer
                0x0000000020000708                CrdNbData
 COMMON         0x000000002000070c       0x6e ../../src/CCID/SMARTCARD/smartcard.o
                0x000000002000070c                SC_ATR_Table
                0x0000000020000734                SC_A2R
                0x0000000020000764                SC_Responce
 *fill*         0x000000002000077a        0x2 
 COMMON         0x000000002000077c      0x160 ../../src/CCID/CCIDHID_USB/CCIDHID_usb_prop.o
                0x000000002000077c                HID_SetReport_Value
                0x00000000200007bc                ProtocolValue
                0x00000000200007c0                message
                0x0000000020000800                CCID_Device_Info
                0x000000002000081c                HID_GetReport_Value
                0x000000002000085c                HID_GetReport_Value_tmp
                0x000000002000089c                HID_SetReport_Value_tmp
 COMMON         0x00000000200008dc       0x1c ../../src/SD_DISK/SD_USB/usb_prop.o
                0x00000000200008dc                MASS_Device_Info
 COMMON         0x00000000200008f8        0x2 ../../src/STM/Libraries/STM32_USB-FS-Device_Driver/src/usb_core.o
                0x00000000200008f8                StatusInfo
 *fill*         0x00000000200008fa        0x2 
 COMMON         0x00000000200008fc       0x1a ../../src/STM/Libraries/STM32_USB-FS-Device_Driver/src/usb_init.o
                0x00000000200008fc                SaveState
                0x0000000020000900                pProperty
                0x0000000020000904                EPindex
                0x0000000020000908                Device_Info
                0x000000002000090c                pUser_Standard_Requests
                0x0000000020000910                pInformation
                0x0000000020000914                wInterrupt_Mask
 COMMON         0x0000000020000916        0x4 ../../src/STM/Libraries/STM32_USB-FS-Device_Driver/src/usb_int.o
                0x0000000020000916                SaveRState
                0x0000000020000918                SaveTState
 *fill*         0x000000002000091a        0x2 
 COMMON         0x000000002000091c      0x3e8 ../../src/CRYPT/hotp.o
                0x000000002000091c                page_buffer
 COMMON         0x0000000020000d04       0x19 ../../src/KEYBOARD/report_protocol.o
                0x0000000020000d04                temp_password
 *fill*         0x0000000020000d1d        0x3 
 COMMON         0x0000000020000d20       0x7c ../../src/USB/usb_bot.o
                0x0000000020000d20                CBW
                0x0000000020000d40                Data_Len
                0x0000000020000d42                Bot_State
                0x0000000020000d44                SCSI_LBA
                0x0000000020000d48                CSW
                0x0000000020000d58                SCSI_BlkLen
                0x0000000020000d5c                Bulk_Data_Buff
 COMMON         0x0000000020000d9c        0x2 ../../src/USB/usb_pwr.o
                0x0000000020000d9c                ResumeS
 COMMON         0x0000000020000d9e        0x2 ../../src/USB/usb_istr.o
                0x0000000020000d9e                wIstr
                0x0000000020000da0                . = ALIGN (0x4)
                0x0000000020000da0                _ebss = .
                0x0000000020000da0                PROVIDE (end, _ebss)
                0x0000000020000da0                PROVIDE (_end, _ebss)

._usrstack      0x0000000020000da0      0x100 load address 0x000000000800acf8
                0x0000000020000da0                . = ALIGN (0x4)
                0x0000000020000da0                _susrstack = .
                0x0000000020000ea0                . = (. + _Minimum_Stack_Size)
 *fill*         0x0000000020000da0      0x100 
                0x0000000020000ea0                . = ALIGN (0x4)
                0x0000000020000ea0                _eusrstack = .

.b1text
 *(.b1text)
 *(.b1rodata)
 *(.b1rodata*)

.eb0text
 *(.eb0text)
 *(.eb0rodata)
 *(.eb0rodata*)

.eb1text
 *(.eb1text)
 *(.eb1rodata)
 *(.eb1rodata*)

.eb2text
 *(.eb2text)
 *(.eb2rodata)
 *(.eb2rodata*)

.eb3text
 *(.eb3text)
 *(.eb3rodata)
 *(.eb3rodata*)
                0x0000000020000ea0                __exidx_start = .
                0x0000000020000ea0                __exidx_end = .

/DISCARD/
 libc.a(*)
 libm.a(*)
 libgcc.a(*)

.stab
 *(.stab)

.stabstr
 *(.stabstr)

.stab.excl
 *(.stab.excl)

.stab.exclstr
 *(.stab.exclstr)

.stab.index
 *(.stab.index)

.stab.indexstr
 *(.stab.indexstr)

.comment        0x0000000000000000       0x70
 *(.comment)
 .comment       0x0000000000000000       0x70 ../../src/main.o
                                         0x71 (size before relaxing)
 .comment       0x0000000000000000       0x71 ../../src/hw_config.o
 .comment       0x0000000000000000       0x71 ../../src/test_code.o
 .comment       0x0000000000000000       0x71 ../../src/memory_ops.o
 .comment       0x0000000000000000       0x71 ../../src/CCID/Ccid_usb.o
 .comment       0x0000000000000000       0x71 ../../src/CCID/Ifd_protocol.o
 .comment       0x0000000000000000       0x71 ../../src/CCID/Crd.o
 .comment       0x0000000000000000       0x71 ../../src/CCID/Ifd_ccid.o
 .comment       0x0000000000000000       0x71 ../../src/CCID/CcidLocalAccess.o
 .comment       0x0000000000000000       0x71 ../../src/CCID/SMARTCARD/smartcard.o
 .comment       0x0000000000000000       0x71 ../../src/CCID/CCIDHID_USB/CCIDHID_usb_prop.o
 .comment       0x0000000000000000       0x71 ../../src/CCID/CCIDHID_USB/CCIDHID_usb_desc.o
 .comment       0x0000000000000000       0x71 ../../src/SD_DISK/SD_USB/usb_desc.o
 .comment       0x0000000000000000       0x71 ../../src/SD_DISK/SD_USB/usb_prop.o
 .comment       0x0000000000000000       0x71 ../../src/STM/stm32f10x_systick.o
 .comment       0x0000000000000000       0x71 ../../src/STM/stm32f10x_it.o
 .comment       0x0000000000000000       0x71 ../../src/STM/Libraries/CMSIS/Core/CM3/core_cm3.o
 .comment       0x0000000000000000       0x71 ../../src/STM/Libraries/CMSIS/Core/CM3/system_stm32f10x.o
 .comment       0x0000000000000000       0x71 ../../src/STM/Libraries/CMSIS/Core/CM3/startup/gcc/startup_stm32f10x_hd.o
 .comment       0x0000000000000000       0x71 ../../src/STM/Libraries/STM32F10x_StdPeriph_Driver/src/misc.o
 .comment       0x0000000000000000       0x71 ../../src/STM/Libraries/STM32F10x_StdPeriph_Driver/src/stm32f10x_adc.o
 .comment       0x0000000000000000       0x71 ../../src/STM/Libraries/STM32F10x_StdPeriph_Driver/src/stm32f10x_bkp.o
 .comment       0x0000000000000000       0x71 ../../src/STM/Libraries/STM32F10x_StdPeriph_Driver/src/stm32f10x_can.o
 .comment       0x0000000000000000       0x71 ../../src/STM/Libraries/STM32F10x_StdPeriph_Driver/src/stm32f10x_crc.o
 .comment       0x0000000000000000       0x71 ../../src/STM/Libraries/STM32F10x_StdPeriph_Driver/src/stm32f10x_dac.o
 .comment       0x0000000000000000       0x71 ../../src/STM/Libraries/STM32F10x_StdPeriph_Driver/src/stm32f10x_dbgmcu.o
 .comment       0x0000000000000000       0x71 ../../src/STM/Libraries/STM32F10x_StdPeriph_Driver/src/stm32f10x_dma.o
 .comment       0x0000000000000000       0x71 ../../src/STM/Libraries/STM32F10x_StdPeriph_Driver/src/stm32f10x_exti.o
 .comment       0x0000000000000000       0x71 ../../src/STM/Libraries/STM32F10x_StdPeriph_Driver/src/stm32f10x_flash.o
 .comment       0x0000000000000000       0x71 ../../src/STM/Libraries/STM32F10x_StdPeriph_Driver/src/stm32f10x_fsmc.o
 .comment       0x0000000000000000       0x71 ../../src/STM/Libraries/STM32F10x_StdPeriph_Driver/src/stm32f10x_gpio.o
 .comment       0x0000000000000000       0x71 ../../src/STM/Libraries/STM32F10x_StdPeriph_Driver/src/stm32f10x_i2c.o
 .comment       0x0000000000000000       0x71 ../../src/STM/Libraries/STM32F10x_StdPeriph_Driver/src/stm32f10x_iwdg.o
 .comment       0x0000000000000000       0x71 ../../src/STM/Libraries/STM32F10x_StdPeriph_Driver/src/stm32f10x_pwr.o
 .comment       0x0000000000000000       0x71 ../../src/STM/Libraries/STM32F10x_StdPeriph_Driver/src/stm32f10x_rcc.o
 .comment       0x0000000000000000       0x71 ../../src/STM/Libraries/STM32F10x_StdPeriph_Driver/src/stm32f10x_rtc.o
 .comment       0x0000000000000000       0x71 ../../src/STM/Libraries/STM32F10x_StdPeriph_Driver/src/stm32f10x_sdio.o
 .comment       0x0000000000000000       0x71 ../../src/STM/Libraries/STM32F10x_StdPeriph_Driver/src/stm32f10x_spi.o
 .comment       0x0000000000000000       0x71 ../../src/STM/Libraries/STM32F10x_StdPeriph_Driver/src/stm32f10x_tim.o
 .comment       0x0000000000000000       0x71 ../../src/STM/Libraries/STM32F10x_StdPeriph_Driver/src/stm32f10x_usart.o
 .comment       0x0000000000000000       0x71 ../../src/STM/Libraries/STM32F10x_StdPeriph_Driver/src/stm32f10x_wwdg.o
 .comment       0x0000000000000000       0x71 ../../src/STM/Libraries/STM32_USB-FS-Device_Driver/src/usb_core.o
 .comment       0x0000000000000000       0x71 ../../src/STM/Libraries/STM32_USB-FS-Device_Driver/src/usb_init.o
 .comment       0x0000000000000000       0x71 ../../src/STM/Libraries/STM32_USB-FS-Device_Driver/src/usb_int.o
 .comment       0x0000000000000000       0x71 ../../src/STM/Libraries/STM32_USB-FS-Device_Driver/src/usb_mem.o
 .comment       0x0000000000000000       0x71 ../../src/STM/Libraries/STM32_USB-FS-Device_Driver/src/usb_regs.o
 .comment       0x0000000000000000       0x71 ../../src/CRYPT/AES/aes.o
 .comment       0x0000000000000000       0x71 ../../src/CRYPT/SHA1/sha1.o
 .comment       0x0000000000000000       0x71 ../../src/CRYPT/SHA1/hmac-sha1.o
 .comment       0x0000000000000000       0x71 ../../src/CRYPT/hotp.o
 .comment       0x0000000000000000       0x71 ../../src/KEYBOARD/keyboard.o
 .comment       0x0000000000000000       0x71 ../../src/KEYBOARD/report_protocol.o
 .comment       0x0000000000000000       0x71 ../../src/USB/usb_endp.o
 .comment       0x0000000000000000       0x71 ../../src/USB/usb_bot.o
 .comment       0x0000000000000000       0x71 ../../src/USB/usb_pwr.o
 .comment       0x0000000000000000       0x71 ../../src/USB/usb_istr.o

.ARM.attributes
                0x0000000000000000       0x31
 .ARM.attributes
                0x0000000000000000       0x33 ../../src/main.o
 .ARM.attributes
                0x0000000000000033       0x33 ../../src/hw_config.o
 .ARM.attributes
                0x0000000000000066       0x33 ../../src/test_code.o
 .ARM.attributes
                0x0000000000000099       0x33 ../../src/memory_ops.o
 .ARM.attributes
                0x00000000000000cc       0x33 ../../src/CCID/Ccid_usb.o
 .ARM.attributes
                0x00000000000000ff       0x33 ../../src/CCID/Ifd_protocol.o
 .ARM.attributes
                0x0000000000000132       0x33 ../../src/CCID/Crd.o
 .ARM.attributes
                0x0000000000000165       0x33 ../../src/CCID/Ifd_ccid.o
 .ARM.attributes
                0x0000000000000198       0x33 ../../src/CCID/CcidLocalAccess.o
 .ARM.attributes
                0x00000000000001cb       0x33 ../../src/CCID/SMARTCARD/smartcard.o
 .ARM.attributes
                0x00000000000001fe       0x33 ../../src/CCID/CCIDHID_USB/CCIDHID_usb_prop.o
 .ARM.attributes
                0x0000000000000231       0x33 ../../src/CCID/CCIDHID_USB/CCIDHID_usb_desc.o
 .ARM.attributes
                0x0000000000000264       0x33 ../../src/SD_DISK/SD_USB/usb_desc.o
 .ARM.attributes
                0x0000000000000297       0x33 ../../src/SD_DISK/SD_USB/usb_prop.o
 .ARM.attributes
                0x00000000000002ca       0x33 ../../src/STM/stm32f10x_systick.o
 .ARM.attributes
                0x00000000000002fd       0x33 ../../src/STM/stm32f10x_it.o
 .ARM.attributes
                0x0000000000000330       0x33 ../../src/STM/Libraries/CMSIS/Core/CM3/core_cm3.o
 .ARM.attributes
                0x0000000000000363       0x33 ../../src/STM/Libraries/CMSIS/Core/CM3/system_stm32f10x.o
 .ARM.attributes
                0x0000000000000396       0x33 ../../src/STM/Libraries/CMSIS/Core/CM3/startup/gcc/startup_stm32f10x_hd.o
 .ARM.attributes
                0x00000000000003c9       0x33 ../../src/STM/Libraries/STM32F10x_StdPeriph_Driver/src/misc.o
 .ARM.attributes
                0x00000000000003fc       0x33 ../../src/STM/Libraries/STM32F10x_StdPeriph_Driver/src/stm32f10x_adc.o
 .ARM.attributes
                0x000000000000042f       0x33 ../../src/STM/Libraries/STM32F10x_StdPeriph_Driver/src/stm32f10x_bkp.o
 .ARM.attributes
                0x0000000000000462       0x33 ../../src/STM/Libraries/STM32F10x_StdPeriph_Driver/src/stm32f10x_can.o
 .ARM.attributes
                0x0000000000000495       0x33 ../../src/STM/Libraries/STM32F10x_StdPeriph_Driver/src/stm32f10x_crc.o
 .ARM.attributes
                0x00000000000004c8       0x33 ../../src/STM/Libraries/STM32F10x_StdPeriph_Driver/src/stm32f10x_dac.o
 .ARM.attributes
                0x00000000000004fb       0x33 ../../src/STM/Libraries/STM32F10x_StdPeriph_Driver/src/stm32f10x_dbgmcu.o
 .ARM.attributes
                0x000000000000052e       0x33 ../../src/STM/Libraries/STM32F10x_StdPeriph_Driver/src/stm32f10x_dma.o
 .ARM.attributes
                0x0000000000000561       0x33 ../../src/STM/Libraries/STM32F10x_StdPeriph_Driver/src/stm32f10x_exti.o
 .ARM.attributes
                0x0000000000000594       0x33 ../../src/STM/Libraries/STM32F10x_StdPeriph_Driver/src/stm32f10x_flash.o
 .ARM.attributes
                0x00000000000005c7       0x33 ../../src/STM/Libraries/STM32F10x_StdPeriph_Driver/src/stm32f10x_fsmc.o
 .ARM.attributes
                0x00000000000005fa       0x33 ../../src/STM/Libraries/STM32F10x_StdPeriph_Driver/src/stm32f10x_gpio.o
 .ARM.attributes
                0x000000000000062d       0x33 ../../src/STM/Libraries/STM32F10x_StdPeriph_Driver/src/stm32f10x_i2c.o
 .ARM.attributes
                0x0000000000000660       0x33 ../../src/STM/Libraries/STM32F10x_StdPeriph_Driver/src/stm32f10x_iwdg.o
 .ARM.attributes
                0x0000000000000693       0x33 ../../src/STM/Libraries/STM32F10x_StdPeriph_Driver/src/stm32f10x_pwr.o
 .ARM.attributes
                0x00000000000006c6       0x33 ../../src/STM/Libraries/STM32F10x_StdPeriph_Driver/src/stm32f10x_rcc.o
 .ARM.attributes
                0x00000000000006f9       0x33 ../../src/STM/Libraries/STM32F10x_StdPeriph_Driver/src/stm32f10x_rtc.o
 .ARM.attributes
                0x000000000000072c       0x33 ../../src/STM/Libraries/STM32F10x_StdPeriph_Driver/src/stm32f10x_sdio.o
 .ARM.attributes
                0x000000000000075f       0x33 ../../src/STM/Libraries/STM32F10x_StdPeriph_Driver/src/stm32f10x_spi.o
 .ARM.attributes
                0x0000000000000792       0x33 ../../src/STM/Libraries/STM32F10x_StdPeriph_Driver/src/stm32f10x_tim.o
 .ARM.attributes
                0x00000000000007c5       0x33 ../../src/STM/Libraries/STM32F10x_StdPeriph_Driver/src/stm32f10x_usart.o
 .ARM.attributes
                0x00000000000007f8       0x33 ../../src/STM/Libraries/STM32F10x_StdPeriph_Driver/src/stm32f10x_wwdg.o
 .ARM.attributes
                0x000000000000082b       0x33 ../../src/STM/Libraries/STM32_USB-FS-Device_Driver/src/usb_core.o
 .ARM.attributes
                0x000000000000085e       0x33 ../../src/STM/Libraries/STM32_USB-FS-Device_Driver/src/usb_init.o
 .ARM.attributes
                0x0000000000000891       0x33 ../../src/STM/Libraries/STM32_USB-FS-Device_Driver/src/usb_int.o
 .ARM.attributes
                0x00000000000008c4       0x33 ../../src/STM/Libraries/STM32_USB-FS-Device_Driver/src/usb_mem.o
 .ARM.attributes
                0x00000000000008f7       0x33 ../../src/STM/Libraries/STM32_USB-FS-Device_Driver/src/usb_regs.o
 .ARM.attributes
                0x000000000000092a       0x33 ../../src/CRYPT/AES/aes.o
 .ARM.attributes
                0x000000000000095d       0x33 ../../src/CRYPT/SHA1/sha1.o
 .ARM.attributes
                0x0000000000000990       0x33 ../../src/CRYPT/SHA1/hmac-sha1.o
 .ARM.attributes
                0x00000000000009c3       0x33 ../../src/CRYPT/hotp.o
 .ARM.attributes
                0x00000000000009f6       0x33 ../../src/KEYBOARD/keyboard.o
 .ARM.attributes
                0x0000000000000a29       0x33 ../../src/KEYBOARD/report_protocol.o
 .ARM.attributes
                0x0000000000000a5c       0x33 ../../src/USB/usb_endp.o
 .ARM.attributes
                0x0000000000000a8f       0x33 ../../src/USB/usb_bot.o
 .ARM.attributes
                0x0000000000000ac2       0x33 ../../src/USB/usb_pwr.o
 .ARM.attributes
                0x0000000000000af5       0x33 ../../src/USB/usb_istr.o
 .ARM.attributes
                0x0000000000000b28       0x2d /usr/bin/../lib/gcc/arm-none-eabi/4.8.3/../../../../arm-none-eabi/lib/armv7-m/libc.a(lib_a-memcmp.o)
 .ARM.attributes
                0x0000000000000b55       0x1b /usr/bin/../lib/gcc/arm-none-eabi/4.8.3/../../../../arm-none-eabi/lib/armv7-m/libc.a(lib_a-memcpy.o)
 .ARM.attributes
                0x0000000000000b70       0x2d /usr/bin/../lib/gcc/arm-none-eabi/4.8.3/../../../../arm-none-eabi/lib/armv7-m/libc.a(lib_a-memmove.o)
 .ARM.attributes
                0x0000000000000b9d       0x2d /usr/bin/../lib/gcc/arm-none-eabi/4.8.3/../../../../arm-none-eabi/lib/armv7-m/libc.a(lib_a-memset.o)
 .ARM.attributes
                0x0000000000000bca       0x1b /usr/bin/../lib/gcc/arm-none-eabi/4.8.3/../../../../arm-none-eabi/lib/armv7-m/libc.a(lib_a-setjmp.o)
 .ARM.attributes
                0x0000000000000be5       0x2d /usr/bin/../lib/gcc/arm-none-eabi/4.8.3/../../../../arm-none-eabi/lib/armv7-m/libc.a(lib_a-strcpy.o)
 .ARM.attributes
                0x0000000000000c12       0x2d /usr/bin/../lib/gcc/arm-none-eabi/4.8.3/../../../../arm-none-eabi/lib/armv7-m/libc.a(lib_a-strlen.o)

.debug
 *(.debug)

.line
 *(.line)

.debug_srcinfo
 *(.debug_srcinfo)

.debug_sfnames
 *(.debug_sfnames)

.debug_aranges  0x0000000000000000      0x6b8
 *(.debug_aranges)
 .debug_aranges
                0x0000000000000000       0x28 ../../src/main.o
 .debug_aranges
                0x0000000000000028       0x20 ../../src/hw_config.o
 .debug_aranges
                0x0000000000000048       0x20 ../../src/memory_ops.o
 .debug_aranges
                0x0000000000000068       0x20 ../../src/CCID/Ccid_usb.o
 .debug_aranges
                0x0000000000000088       0x20 ../../src/CCID/Ifd_protocol.o
 .debug_aranges
                0x00000000000000a8       0x20 ../../src/CCID/Crd.o
 .debug_aranges
                0x00000000000000c8       0x20 ../../src/CCID/Ifd_ccid.o
 .debug_aranges
                0x00000000000000e8       0x20 ../../src/CCID/CcidLocalAccess.o
 .debug_aranges
                0x0000000000000108       0x20 ../../src/CCID/SMARTCARD/smartcard.o
 .debug_aranges
                0x0000000000000128       0x20 ../../src/CCID/CCIDHID_USB/CCIDHID_usb_prop.o
 .debug_aranges
                0x0000000000000148       0x18 ../../src/CCID/CCIDHID_USB/CCIDHID_usb_desc.o
 .debug_aranges
                0x0000000000000160       0x18 ../../src/SD_DISK/SD_USB/usb_desc.o
 .debug_aranges
                0x0000000000000178       0x20 ../../src/SD_DISK/SD_USB/usb_prop.o
 .debug_aranges
                0x0000000000000198       0x20 ../../src/STM/stm32f10x_systick.o
 .debug_aranges
                0x00000000000001b8       0x20 ../../src/STM/stm32f10x_it.o
 .debug_aranges
                0x00000000000001d8       0x20 ../../src/STM/Libraries/CMSIS/Core/CM3/core_cm3.o
 .debug_aranges
                0x00000000000001f8       0x20 ../../src/STM/Libraries/CMSIS/Core/CM3/system_stm32f10x.o
 .debug_aranges
                0x0000000000000218       0x20 ../../src/STM/Libraries/CMSIS/Core/CM3/startup/gcc/startup_stm32f10x_hd.o
 .debug_aranges
                0x0000000000000238       0x20 ../../src/STM/Libraries/STM32F10x_StdPeriph_Driver/src/misc.o
 .debug_aranges
                0x0000000000000258       0x20 ../../src/STM/Libraries/STM32F10x_StdPeriph_Driver/src/stm32f10x_adc.o
 .debug_aranges
                0x0000000000000278       0x20 ../../src/STM/Libraries/STM32F10x_StdPeriph_Driver/src/stm32f10x_bkp.o
 .debug_aranges
                0x0000000000000298       0x20 ../../src/STM/Libraries/STM32F10x_StdPeriph_Driver/src/stm32f10x_can.o
 .debug_aranges
                0x00000000000002b8       0x20 ../../src/STM/Libraries/STM32F10x_StdPeriph_Driver/src/stm32f10x_crc.o
 .debug_aranges
                0x00000000000002d8       0x20 ../../src/STM/Libraries/STM32F10x_StdPeriph_Driver/src/stm32f10x_dac.o
 .debug_aranges
                0x00000000000002f8       0x20 ../../src/STM/Libraries/STM32F10x_StdPeriph_Driver/src/stm32f10x_dbgmcu.o
 .debug_aranges
                0x0000000000000318       0x20 ../../src/STM/Libraries/STM32F10x_StdPeriph_Driver/src/stm32f10x_dma.o
 .debug_aranges
                0x0000000000000338       0x20 ../../src/STM/Libraries/STM32F10x_StdPeriph_Driver/src/stm32f10x_exti.o
 .debug_aranges
                0x0000000000000358       0x20 ../../src/STM/Libraries/STM32F10x_StdPeriph_Driver/src/stm32f10x_flash.o
 .debug_aranges
                0x0000000000000378       0x20 ../../src/STM/Libraries/STM32F10x_StdPeriph_Driver/src/stm32f10x_fsmc.o
 .debug_aranges
                0x0000000000000398       0x20 ../../src/STM/Libraries/STM32F10x_StdPeriph_Driver/src/stm32f10x_gpio.o
 .debug_aranges
                0x00000000000003b8       0x20 ../../src/STM/Libraries/STM32F10x_StdPeriph_Driver/src/stm32f10x_i2c.o
 .debug_aranges
                0x00000000000003d8       0x20 ../../src/STM/Libraries/STM32F10x_StdPeriph_Driver/src/stm32f10x_iwdg.o
 .debug_aranges
                0x00000000000003f8       0x20 ../../src/STM/Libraries/STM32F10x_StdPeriph_Driver/src/stm32f10x_pwr.o
 .debug_aranges
                0x0000000000000418       0x20 ../../src/STM/Libraries/STM32F10x_StdPeriph_Driver/src/stm32f10x_rcc.o
 .debug_aranges
                0x0000000000000438       0x20 ../../src/STM/Libraries/STM32F10x_StdPeriph_Driver/src/stm32f10x_rtc.o
 .debug_aranges
                0x0000000000000458       0x20 ../../src/STM/Libraries/STM32F10x_StdPeriph_Driver/src/stm32f10x_sdio.o
 .debug_aranges
                0x0000000000000478       0x20 ../../src/STM/Libraries/STM32F10x_StdPeriph_Driver/src/stm32f10x_spi.o
 .debug_aranges
                0x0000000000000498       0x20 ../../src/STM/Libraries/STM32F10x_StdPeriph_Driver/src/stm32f10x_tim.o
 .debug_aranges
                0x00000000000004b8       0x20 ../../src/STM/Libraries/STM32F10x_StdPeriph_Driver/src/stm32f10x_usart.o
 .debug_aranges
                0x00000000000004d8       0x20 ../../src/STM/Libraries/STM32F10x_StdPeriph_Driver/src/stm32f10x_wwdg.o
 .debug_aranges
                0x00000000000004f8       0x20 ../../src/STM/Libraries/STM32_USB-FS-Device_Driver/src/usb_core.o
 .debug_aranges
                0x0000000000000518       0x20 ../../src/STM/Libraries/STM32_USB-FS-Device_Driver/src/usb_init.o
 .debug_aranges
                0x0000000000000538       0x20 ../../src/STM/Libraries/STM32_USB-FS-Device_Driver/src/usb_int.o
 .debug_aranges
                0x0000000000000558       0x20 ../../src/STM/Libraries/STM32_USB-FS-Device_Driver/src/usb_mem.o
 .debug_aranges
                0x0000000000000578       0x20 ../../src/STM/Libraries/STM32_USB-FS-Device_Driver/src/usb_regs.o
 .debug_aranges
                0x0000000000000598       0x20 ../../src/CRYPT/SHA1/sha1.o
 .debug_aranges
                0x00000000000005b8       0x20 ../../src/CRYPT/SHA1/hmac-sha1.o
 .debug_aranges
                0x00000000000005d8       0x20 ../../src/CRYPT/hotp.o
 .debug_aranges
                0x00000000000005f8       0x20 ../../src/KEYBOARD/keyboard.o
 .debug_aranges
                0x0000000000000618       0x20 ../../src/KEYBOARD/report_protocol.o
 .debug_aranges
                0x0000000000000638       0x20 ../../src/USB/usb_endp.o
 .debug_aranges
                0x0000000000000658       0x20 ../../src/USB/usb_bot.o
 .debug_aranges
                0x0000000000000678       0x20 ../../src/USB/usb_pwr.o
 .debug_aranges
                0x0000000000000698       0x20 ../../src/USB/usb_istr.o

.debug_pubnames
 *(.debug_pubnames)

.debug_info     0x0000000000000000    0x1ba61
 *(.debug_info .gnu.linkonce.wi.*)
 .debug_info    0x0000000000000000      0xd32 ../../src/main.o
 .debug_info    0x0000000000000d32     0x1298 ../../src/hw_config.o
 .debug_info    0x0000000000001fca      0x1b2 ../../src/memory_ops.o
 .debug_info    0x000000000000217c      0x944 ../../src/CCID/Ccid_usb.o
 .debug_info    0x0000000000002ac0      0x8b0 ../../src/CCID/Ifd_protocol.o
 .debug_info    0x0000000000003370      0x61c ../../src/CCID/Crd.o
 .debug_info    0x000000000000398c      0x676 ../../src/CCID/Ifd_ccid.o
 .debug_info    0x0000000000004002      0xabe ../../src/CCID/CcidLocalAccess.o
 .debug_info    0x0000000000004ac0     0x27f7 ../../src/CCID/SMARTCARD/smartcard.o
 .debug_info    0x00000000000072b7     0x11fb ../../src/CCID/CCIDHID_USB/CCIDHID_usb_prop.o
 .debug_info    0x00000000000084b2      0x1b6 ../../src/CCID/CCIDHID_USB/CCIDHID_usb_desc.o
 .debug_info    0x0000000000008668      0x18d ../../src/SD_DISK/SD_USB/usb_desc.o
 .debug_info    0x00000000000087f5      0xdc9 ../../src/SD_DISK/SD_USB/usb_prop.o
 .debug_info    0x00000000000095be      0x230 ../../src/STM/stm32f10x_systick.o
 .debug_info    0x00000000000097ee      0x508 ../../src/STM/stm32f10x_it.o
 .debug_info    0x0000000000009cf6      0x59c ../../src/STM/Libraries/CMSIS/Core/CM3/core_cm3.o
 .debug_info    0x000000000000a292      0x2f4 ../../src/STM/Libraries/CMSIS/Core/CM3/system_stm32f10x.o
 .debug_info    0x000000000000a586      0x196 ../../src/STM/Libraries/CMSIS/Core/CM3/startup/gcc/startup_stm32f10x_hd.o
 .debug_info    0x000000000000a71c      0x53b ../../src/STM/Libraries/STM32F10x_StdPeriph_Driver/src/misc.o
 .debug_info    0x000000000000ac57      0xcae ../../src/STM/Libraries/STM32F10x_StdPeriph_Driver/src/stm32f10x_adc.o
 .debug_info    0x000000000000b905      0x895 ../../src/STM/Libraries/STM32F10x_StdPeriph_Driver/src/stm32f10x_bkp.o
 .debug_info    0x000000000000c19a      0xb7c ../../src/STM/Libraries/STM32F10x_StdPeriph_Driver/src/stm32f10x_can.o
 .debug_info    0x000000000000cd16      0x20a ../../src/STM/Libraries/STM32F10x_StdPeriph_Driver/src/stm32f10x_crc.o
 .debug_info    0x000000000000cf20      0x4d6 ../../src/STM/Libraries/STM32F10x_StdPeriph_Driver/src/stm32f10x_dac.o
 .debug_info    0x000000000000d3f6      0x145 ../../src/STM/Libraries/STM32F10x_StdPeriph_Driver/src/stm32f10x_dbgmcu.o
 .debug_info    0x000000000000d53b      0x45a ../../src/STM/Libraries/STM32F10x_StdPeriph_Driver/src/stm32f10x_dma.o
 .debug_info    0x000000000000d995      0x340 ../../src/STM/Libraries/STM32F10x_StdPeriph_Driver/src/stm32f10x_exti.o
 .debug_info    0x000000000000dcd5      0x97d ../../src/STM/Libraries/STM32F10x_StdPeriph_Driver/src/stm32f10x_flash.o
 .debug_info    0x000000000000e652      0x992 ../../src/STM/Libraries/STM32F10x_StdPeriph_Driver/src/stm32f10x_fsmc.o
 .debug_info    0x000000000000efe4      0x888 ../../src/STM/Libraries/STM32F10x_StdPeriph_Driver/src/stm32f10x_gpio.o
 .debug_info    0x000000000000f86c      0xbf2 ../../src/STM/Libraries/STM32F10x_StdPeriph_Driver/src/stm32f10x_i2c.o
 .debug_info    0x000000000001045e      0x200 ../../src/STM/Libraries/STM32F10x_StdPeriph_Driver/src/stm32f10x_iwdg.o
 .debug_info    0x000000000001065e      0x332 ../../src/STM/Libraries/STM32F10x_StdPeriph_Driver/src/stm32f10x_pwr.o
 .debug_info    0x0000000000010990      0x99f ../../src/STM/Libraries/STM32F10x_StdPeriph_Driver/src/stm32f10x_rcc.o
 .debug_info    0x000000000001132f      0x4c3 ../../src/STM/Libraries/STM32F10x_StdPeriph_Driver/src/stm32f10x_rtc.o
 .debug_info    0x00000000000117f2      0x874 ../../src/STM/Libraries/STM32F10x_StdPeriph_Driver/src/stm32f10x_sdio.o
 .debug_info    0x0000000000012066      0xa5c ../../src/STM/Libraries/STM32F10x_StdPeriph_Driver/src/stm32f10x_spi.o
 .debug_info    0x0000000000012ac2     0x2534 ../../src/STM/Libraries/STM32F10x_StdPeriph_Driver/src/stm32f10x_tim.o
 .debug_info    0x0000000000014ff6      0xb57 ../../src/STM/Libraries/STM32F10x_StdPeriph_Driver/src/stm32f10x_usart.o
 .debug_info    0x0000000000015b4d      0x28c ../../src/STM/Libraries/STM32F10x_StdPeriph_Driver/src/stm32f10x_wwdg.o
 .debug_info    0x0000000000015dd9      0xf6d ../../src/STM/Libraries/STM32_USB-FS-Device_Driver/src/usb_core.o
 .debug_info    0x0000000000016d46      0x58f ../../src/STM/Libraries/STM32_USB-FS-Device_Driver/src/usb_init.o
 .debug_info    0x00000000000172d5      0x238 ../../src/STM/Libraries/STM32_USB-FS-Device_Driver/src/usb_int.o
 .debug_info    0x000000000001750d      0x1c6 ../../src/STM/Libraries/STM32_USB-FS-Device_Driver/src/usb_mem.o
 .debug_info    0x00000000000176d3      0xdb5 ../../src/STM/Libraries/STM32_USB-FS-Device_Driver/src/usb_regs.o
 .debug_info    0x0000000000018488      0x68f ../../src/CRYPT/SHA1/sha1.o
 .debug_info    0x0000000000018b17      0x67f ../../src/CRYPT/SHA1/hmac-sha1.o
 .debug_info    0x0000000000019196      0xd00 ../../src/CRYPT/hotp.o
 .debug_info    0x0000000000019e96      0x470 ../../src/KEYBOARD/keyboard.o
 .debug_info    0x000000000001a306      0xa52 ../../src/KEYBOARD/report_protocol.o
 .debug_info    0x000000000001ad58      0x13a ../../src/USB/usb_endp.o
 .debug_info    0x000000000001ae92      0x462 ../../src/USB/usb_bot.o
 .debug_info    0x000000000001b2f4      0x402 ../../src/USB/usb_pwr.o
 .debug_info    0x000000000001b6f6      0x36b ../../src/USB/usb_istr.o

.debug_abbrev   0x0000000000000000     0x66f0
 *(.debug_abbrev)
 .debug_abbrev  0x0000000000000000      0x2d7 ../../src/main.o
 .debug_abbrev  0x00000000000002d7      0x3ce ../../src/hw_config.o
 .debug_abbrev  0x00000000000006a5       0xa3 ../../src/memory_ops.o
 .debug_abbrev  0x0000000000000748      0x255 ../../src/CCID/Ccid_usb.o
 .debug_abbrev  0x000000000000099d      0x356 ../../src/CCID/Ifd_protocol.o
 .debug_abbrev  0x0000000000000cf3      0x2cf ../../src/CCID/Crd.o
 .debug_abbrev  0x0000000000000fc2      0x1d1 ../../src/CCID/Ifd_ccid.o
 .debug_abbrev  0x0000000000001193      0x2f2 ../../src/CCID/CcidLocalAccess.o
 .debug_abbrev  0x0000000000001485      0x47e ../../src/CCID/SMARTCARD/smartcard.o
 .debug_abbrev  0x0000000000001903      0x339 ../../src/CCID/CCIDHID_USB/CCIDHID_usb_prop.o
 .debug_abbrev  0x0000000000001c3c       0x6e ../../src/CCID/CCIDHID_USB/CCIDHID_usb_desc.o
 .debug_abbrev  0x0000000000001caa       0x5d ../../src/SD_DISK/SD_USB/usb_desc.o
 .debug_abbrev  0x0000000000001d07      0x319 ../../src/SD_DISK/SD_USB/usb_prop.o
 .debug_abbrev  0x0000000000002020      0x126 ../../src/STM/stm32f10x_systick.o
 .debug_abbrev  0x0000000000002146      0x13c ../../src/STM/stm32f10x_it.o
 .debug_abbrev  0x0000000000002282       0xbd ../../src/STM/Libraries/CMSIS/Core/CM3/core_cm3.o
 .debug_abbrev  0x000000000000233f      0x113 ../../src/STM/Libraries/CMSIS/Core/CM3/system_stm32f10x.o
 .debug_abbrev  0x0000000000002452      0x123 ../../src/STM/Libraries/CMSIS/Core/CM3/startup/gcc/startup_stm32f10x_hd.o
 .debug_abbrev  0x0000000000002575      0x130 ../../src/STM/Libraries/STM32F10x_StdPeriph_Driver/src/misc.o
 .debug_abbrev  0x00000000000026a5      0x1e7 ../../src/STM/Libraries/STM32F10x_StdPeriph_Driver/src/stm32f10x_adc.o
 .debug_abbrev  0x000000000000288c      0x1af ../../src/STM/Libraries/STM32F10x_StdPeriph_Driver/src/stm32f10x_bkp.o
 .debug_abbrev  0x0000000000002a3b      0x2a6 ../../src/STM/Libraries/STM32F10x_StdPeriph_Driver/src/stm32f10x_can.o
 .debug_abbrev  0x0000000000002ce1      0x114 ../../src/STM/Libraries/STM32F10x_StdPeriph_Driver/src/stm32f10x_crc.o
 .debug_abbrev  0x0000000000002df5      0x1b4 ../../src/STM/Libraries/STM32F10x_StdPeriph_Driver/src/stm32f10x_dac.o
 .debug_abbrev  0x0000000000002fa9       0xdc ../../src/STM/Libraries/STM32F10x_StdPeriph_Driver/src/stm32f10x_dbgmcu.o
 .debug_abbrev  0x0000000000003085      0x187 ../../src/STM/Libraries/STM32F10x_StdPeriph_Driver/src/stm32f10x_dma.o
 .debug_abbrev  0x000000000000320c      0x167 ../../src/STM/Libraries/STM32F10x_StdPeriph_Driver/src/stm32f10x_exti.o
 .debug_abbrev  0x0000000000003373      0x268 ../../src/STM/Libraries/STM32F10x_StdPeriph_Driver/src/stm32f10x_flash.o
 .debug_abbrev  0x00000000000035db      0x1cb ../../src/STM/Libraries/STM32F10x_StdPeriph_Driver/src/stm32f10x_fsmc.o
 .debug_abbrev  0x00000000000037a6      0x1f4 ../../src/STM/Libraries/STM32F10x_StdPeriph_Driver/src/stm32f10x_gpio.o
 .debug_abbrev  0x000000000000399a      0x205 ../../src/STM/Libraries/STM32F10x_StdPeriph_Driver/src/stm32f10x_i2c.o
 .debug_abbrev  0x0000000000003b9f       0xff ../../src/STM/Libraries/STM32F10x_StdPeriph_Driver/src/stm32f10x_iwdg.o
 .debug_abbrev  0x0000000000003c9e      0x1a7 ../../src/STM/Libraries/STM32F10x_StdPeriph_Driver/src/stm32f10x_pwr.o
 .debug_abbrev  0x0000000000003e45      0x2ae ../../src/STM/Libraries/STM32F10x_StdPeriph_Driver/src/stm32f10x_rcc.o
 .debug_abbrev  0x00000000000040f3      0x1ca ../../src/STM/Libraries/STM32F10x_StdPeriph_Driver/src/stm32f10x_rtc.o
 .debug_abbrev  0x00000000000042bd      0x1fb ../../src/STM/Libraries/STM32F10x_StdPeriph_Driver/src/stm32f10x_sdio.o
 .debug_abbrev  0x00000000000044b8      0x207 ../../src/STM/Libraries/STM32F10x_StdPeriph_Driver/src/stm32f10x_spi.o
 .debug_abbrev  0x00000000000046bf      0x2b4 ../../src/STM/Libraries/STM32F10x_StdPeriph_Driver/src/stm32f10x_tim.o
 .debug_abbrev  0x0000000000004973      0x23b ../../src/STM/Libraries/STM32F10x_StdPeriph_Driver/src/stm32f10x_usart.o
 .debug_abbrev  0x0000000000004bae      0x149 ../../src/STM/Libraries/STM32F10x_StdPeriph_Driver/src/stm32f10x_wwdg.o
 .debug_abbrev  0x0000000000004cf7      0x424 ../../src/STM/Libraries/STM32_USB-FS-Device_Driver/src/usb_core.o
 .debug_abbrev  0x000000000000511b      0x13c ../../src/STM/Libraries/STM32_USB-FS-Device_Driver/src/usb_init.o
 .debug_abbrev  0x0000000000005257       0xe5 ../../src/STM/Libraries/STM32_USB-FS-Device_Driver/src/usb_int.o
 .debug_abbrev  0x000000000000533c       0xa1 ../../src/STM/Libraries/STM32_USB-FS-Device_Driver/src/usb_mem.o
 .debug_abbrev  0x00000000000053dd      0x218 ../../src/STM/Libraries/STM32_USB-FS-Device_Driver/src/usb_regs.o
 .debug_abbrev  0x00000000000055f5      0x26f ../../src/CRYPT/SHA1/sha1.o
 .debug_abbrev  0x0000000000005864      0x178 ../../src/CRYPT/SHA1/hmac-sha1.o
 .debug_abbrev  0x00000000000059dc      0x369 ../../src/CRYPT/hotp.o
 .debug_abbrev  0x0000000000005d45      0x1f7 ../../src/KEYBOARD/keyboard.o
 .debug_abbrev  0x0000000000005f3c      0x272 ../../src/KEYBOARD/report_protocol.o
 .debug_abbrev  0x00000000000061ae       0xb3 ../../src/USB/usb_endp.o
 .debug_abbrev  0x0000000000006261      0x162 ../../src/USB/usb_bot.o
 .debug_abbrev  0x00000000000063c3      0x1db ../../src/USB/usb_pwr.o
 .debug_abbrev  0x000000000000659e      0x152 ../../src/USB/usb_istr.o

.debug_line     0x0000000000000000     0x770e
 *(.debug_line)
 .debug_line    0x0000000000000000      0x2e7 ../../src/main.o
 .debug_line    0x00000000000002e7      0x36e ../../src/hw_config.o
 .debug_line    0x0000000000000655        0x0 ../../src/test_code.o
 .debug_line    0x0000000000000655       0xd0 ../../src/memory_ops.o
 .debug_line    0x0000000000000725      0x306 ../../src/CCID/Ccid_usb.o
 .debug_line    0x0000000000000a2b      0x310 ../../src/CCID/Ifd_protocol.o
 .debug_line    0x0000000000000d3b      0x18e ../../src/CCID/Crd.o
 .debug_line    0x0000000000000ec9      0x2dd ../../src/CCID/Ifd_ccid.o
 .debug_line    0x00000000000011a6      0x2ef ../../src/CCID/CcidLocalAccess.o
 .debug_line    0x0000000000001495      0x643 ../../src/CCID/SMARTCARD/smartcard.o
 .debug_line    0x0000000000001ad8      0x321 ../../src/CCID/CCIDHID_USB/CCIDHID_usb_prop.o
 .debug_line    0x0000000000001df9       0xac ../../src/CCID/CCIDHID_USB/CCIDHID_usb_desc.o
 .debug_line    0x0000000000001ea5       0xa2 ../../src/SD_DISK/SD_USB/usb_desc.o
 .debug_line    0x0000000000001f47      0x215 ../../src/SD_DISK/SD_USB/usb_prop.o
 .debug_line    0x000000000000215c      0x118 ../../src/STM/stm32f10x_systick.o
 .debug_line    0x0000000000002274      0x190 ../../src/STM/stm32f10x_it.o
 .debug_line    0x0000000000002404      0x125 ../../src/STM/Libraries/CMSIS/Core/CM3/core_cm3.o
 .debug_line    0x0000000000002529      0x11b ../../src/STM/Libraries/CMSIS/Core/CM3/system_stm32f10x.o
 .debug_line    0x0000000000002644       0xa0 ../../src/STM/Libraries/CMSIS/Core/CM3/startup/gcc/startup_stm32f10x_hd.o
 .debug_line    0x00000000000026e4      0x18d ../../src/STM/Libraries/STM32F10x_StdPeriph_Driver/src/misc.o
 .debug_line    0x0000000000002871      0x307 ../../src/STM/Libraries/STM32F10x_StdPeriph_Driver/src/stm32f10x_adc.o
 .debug_line    0x0000000000002b78      0x187 ../../src/STM/Libraries/STM32F10x_StdPeriph_Driver/src/stm32f10x_bkp.o
 .debug_line    0x0000000000002cff      0x395 ../../src/STM/Libraries/STM32F10x_StdPeriph_Driver/src/stm32f10x_can.o
 .debug_line    0x0000000000003094      0x13a ../../src/STM/Libraries/STM32F10x_StdPeriph_Driver/src/stm32f10x_crc.o
 .debug_line    0x00000000000031ce      0x1cd ../../src/STM/Libraries/STM32F10x_StdPeriph_Driver/src/stm32f10x_dac.o
 .debug_line    0x000000000000339b      0x11a ../../src/STM/Libraries/STM32F10x_StdPeriph_Driver/src/stm32f10x_dbgmcu.o
 .debug_line    0x00000000000034b5      0x205 ../../src/STM/Libraries/STM32F10x_StdPeriph_Driver/src/stm32f10x_dma.o
 .debug_line    0x00000000000036ba      0x1bb ../../src/STM/Libraries/STM32F10x_StdPeriph_Driver/src/stm32f10x_exti.o
 .debug_line    0x0000000000003875      0x300 ../../src/STM/Libraries/STM32F10x_StdPeriph_Driver/src/stm32f10x_flash.o
 .debug_line    0x0000000000003b75      0x336 ../../src/STM/Libraries/STM32F10x_StdPeriph_Driver/src/stm32f10x_fsmc.o
 .debug_line    0x0000000000003eab      0x269 ../../src/STM/Libraries/STM32F10x_StdPeriph_Driver/src/stm32f10x_gpio.o
 .debug_line    0x0000000000004114      0x2cb ../../src/STM/Libraries/STM32F10x_StdPeriph_Driver/src/stm32f10x_i2c.o
 .debug_line    0x00000000000043df      0x124 ../../src/STM/Libraries/STM32F10x_StdPeriph_Driver/src/stm32f10x_iwdg.o
 .debug_line    0x0000000000004503      0x1bd ../../src/STM/Libraries/STM32F10x_StdPeriph_Driver/src/stm32f10x_pwr.o
 .debug_line    0x00000000000046c0      0x288 ../../src/STM/Libraries/STM32F10x_StdPeriph_Driver/src/stm32f10x_rcc.o
 .debug_line    0x0000000000004948      0x1b0 ../../src/STM/Libraries/STM32F10x_StdPeriph_Driver/src/stm32f10x_rtc.o
 .debug_line    0x0000000000004af8      0x245 ../../src/STM/Libraries/STM32F10x_StdPeriph_Driver/src/stm32f10x_sdio.o
 .debug_line    0x0000000000004d3d      0x27b ../../src/STM/Libraries/STM32F10x_StdPeriph_Driver/src/stm32f10x_spi.o
 .debug_line    0x0000000000004fb8      0x772 ../../src/STM/Libraries/STM32F10x_StdPeriph_Driver/src/stm32f10x_tim.o
 .debug_line    0x000000000000572a      0x2bf ../../src/STM/Libraries/STM32F10x_StdPeriph_Driver/src/stm32f10x_usart.o
 .debug_line    0x00000000000059e9      0x17a ../../src/STM/Libraries/STM32F10x_StdPeriph_Driver/src/stm32f10x_wwdg.o
 .debug_line    0x0000000000005b63      0x4ae ../../src/STM/Libraries/STM32_USB-FS-Device_Driver/src/usb_core.o
 .debug_line    0x0000000000006011      0x173 ../../src/STM/Libraries/STM32_USB-FS-Device_Driver/src/usb_init.o
 .debug_line    0x0000000000006184      0x19d ../../src/STM/Libraries/STM32_USB-FS-Device_Driver/src/usb_int.o
 .debug_line    0x0000000000006321      0x113 ../../src/STM/Libraries/STM32_USB-FS-Device_Driver/src/usb_mem.o
 .debug_line    0x0000000000006434      0x2bd ../../src/STM/Libraries/STM32_USB-FS-Device_Driver/src/usb_regs.o
 .debug_line    0x00000000000066f1        0x0 ../../src/CRYPT/AES/aes.o
 .debug_line    0x00000000000066f1      0x1e6 ../../src/CRYPT/SHA1/sha1.o
 .debug_line    0x00000000000068d7      0x14f ../../src/CRYPT/SHA1/hmac-sha1.o
 .debug_line    0x0000000000006a26      0x26d ../../src/CRYPT/hotp.o
 .debug_line    0x0000000000006c93      0x21f ../../src/KEYBOARD/keyboard.o
 .debug_line    0x0000000000006eb2      0x2c6 ../../src/KEYBOARD/report_protocol.o
 .debug_line    0x0000000000007178       0xd0 ../../src/USB/usb_endp.o
 .debug_line    0x0000000000007248      0x15a ../../src/USB/usb_bot.o
 .debug_line    0x00000000000073a2      0x1e1 ../../src/USB/usb_pwr.o
 .debug_line    0x0000000000007583      0x18b ../../src/USB/usb_istr.o

.debug_frame    0x0000000000000000     0x44b0
 *(.debug_frame)
 .debug_frame   0x0000000000000000       0x70 ../../src/main.o
 .debug_frame   0x0000000000000070      0x1e0 ../../src/hw_config.o
 .debug_frame   0x0000000000000250       0x50 ../../src/memory_ops.o
 .debug_frame   0x00000000000002a0      0x1ac ../../src/CCID/Ccid_usb.o
 .debug_frame   0x000000000000044c      0x1b4 ../../src/CCID/Ifd_protocol.o
 .debug_frame   0x0000000000000600      0x204 ../../src/CCID/Crd.o
 .debug_frame   0x0000000000000804      0x214 ../../src/CCID/Ifd_ccid.o
 .debug_frame   0x0000000000000a18      0x218 ../../src/CCID/CcidLocalAccess.o
 .debug_frame   0x0000000000000c30      0x2c0 ../../src/CCID/SMARTCARD/smartcard.o
 .debug_frame   0x0000000000000ef0      0x1a4 ../../src/CCID/CCIDHID_USB/CCIDHID_usb_prop.o
 .debug_frame   0x0000000000001094      0x128 ../../src/SD_DISK/SD_USB/usb_prop.o
 .debug_frame   0x00000000000011bc       0x60 ../../src/STM/stm32f10x_systick.o
 .debug_frame   0x000000000000121c       0xf0 ../../src/STM/stm32f10x_it.o
 .debug_frame   0x000000000000130c      0x170 ../../src/STM/Libraries/CMSIS/Core/CM3/core_cm3.o
 .debug_frame   0x000000000000147c       0x2c ../../src/STM/Libraries/CMSIS/Core/CM3/system_stm32f10x.o
 .debug_frame   0x00000000000014a8       0x6c ../../src/STM/Libraries/CMSIS/Core/CM3/startup/gcc/startup_stm32f10x_hd.o
 .debug_frame   0x0000000000001514       0x6c ../../src/STM/Libraries/STM32F10x_StdPeriph_Driver/src/misc.o
 .debug_frame   0x0000000000001580      0x280 ../../src/STM/Libraries/STM32F10x_StdPeriph_Driver/src/stm32f10x_adc.o
 .debug_frame   0x0000000000001800       0xdc ../../src/STM/Libraries/STM32F10x_StdPeriph_Driver/src/stm32f10x_bkp.o
 .debug_frame   0x00000000000018dc      0x178 ../../src/STM/Libraries/STM32F10x_StdPeriph_Driver/src/stm32f10x_can.o
 .debug_frame   0x0000000000001a54       0x70 ../../src/STM/Libraries/STM32F10x_StdPeriph_Driver/src/stm32f10x_crc.o
 .debug_frame   0x0000000000001ac4       0xe8 ../../src/STM/Libraries/STM32F10x_StdPeriph_Driver/src/stm32f10x_dac.o
 .debug_frame   0x0000000000001bac       0x40 ../../src/STM/Libraries/STM32F10x_StdPeriph_Driver/src/stm32f10x_dbgmcu.o
 .debug_frame   0x0000000000001bec       0xc0 ../../src/STM/Libraries/STM32F10x_StdPeriph_Driver/src/stm32f10x_dma.o
 .debug_frame   0x0000000000001cac       0x9c ../../src/STM/Libraries/STM32F10x_StdPeriph_Driver/src/stm32f10x_exti.o
 .debug_frame   0x0000000000001d48      0x224 ../../src/STM/Libraries/STM32F10x_StdPeriph_Driver/src/stm32f10x_flash.o
 .debug_frame   0x0000000000001f6c      0x1a4 ../../src/STM/Libraries/STM32F10x_StdPeriph_Driver/src/stm32f10x_fsmc.o
 .debug_frame   0x0000000000002110      0x164 ../../src/STM/Libraries/STM32F10x_StdPeriph_Driver/src/stm32f10x_gpio.o
 .debug_frame   0x0000000000002274      0x244 ../../src/STM/Libraries/STM32F10x_StdPeriph_Driver/src/stm32f10x_i2c.o
 .debug_frame   0x00000000000024b8       0x70 ../../src/STM/Libraries/STM32F10x_StdPeriph_Driver/src/stm32f10x_iwdg.o
 .debug_frame   0x0000000000002528       0xb4 ../../src/STM/Libraries/STM32F10x_StdPeriph_Driver/src/stm32f10x_pwr.o
 .debug_frame   0x00000000000025dc      0x21c ../../src/STM/Libraries/STM32F10x_StdPeriph_Driver/src/stm32f10x_rcc.o
 .debug_frame   0x00000000000027f8       0xf0 ../../src/STM/Libraries/STM32F10x_StdPeriph_Driver/src/stm32f10x_rtc.o
 .debug_frame   0x00000000000028e8      0x214 ../../src/STM/Libraries/STM32F10x_StdPeriph_Driver/src/stm32f10x_sdio.o
 .debug_frame   0x0000000000002afc      0x1bc ../../src/STM/Libraries/STM32F10x_StdPeriph_Driver/src/stm32f10x_spi.o
 .debug_frame   0x0000000000002cb8      0x63c ../../src/STM/Libraries/STM32F10x_StdPeriph_Driver/src/stm32f10x_tim.o
 .debug_frame   0x00000000000032f4      0x1f8 ../../src/STM/Libraries/STM32F10x_StdPeriph_Driver/src/stm32f10x_usart.o
 .debug_frame   0x00000000000034ec       0x9c ../../src/STM/Libraries/STM32F10x_StdPeriph_Driver/src/stm32f10x_wwdg.o
 .debug_frame   0x0000000000003588      0x1e4 ../../src/STM/Libraries/STM32_USB-FS-Device_Driver/src/usb_core.o
 .debug_frame   0x000000000000376c       0x5c ../../src/STM/Libraries/STM32_USB-FS-Device_Driver/src/usb_init.o
 .debug_frame   0x00000000000037c8       0x64 ../../src/STM/Libraries/STM32_USB-FS-Device_Driver/src/usb_int.o
 .debug_frame   0x000000000000382c       0x38 ../../src/STM/Libraries/STM32_USB-FS-Device_Driver/src/usb_mem.o
 .debug_frame   0x0000000000003864      0x3d8 ../../src/STM/Libraries/STM32_USB-FS-Device_Driver/src/usb_regs.o
 .debug_frame   0x0000000000003c3c       0xf8 ../../src/CRYPT/SHA1/sha1.o
 .debug_frame   0x0000000000003d34       0xb8 ../../src/CRYPT/SHA1/hmac-sha1.o
 .debug_frame   0x0000000000003dec      0x1c0 ../../src/CRYPT/hotp.o
 .debug_frame   0x0000000000003fac       0xe8 ../../src/KEYBOARD/keyboard.o
 .debug_frame   0x0000000000004094      0x174 ../../src/KEYBOARD/report_protocol.o
 .debug_frame   0x0000000000004208       0x60 ../../src/USB/usb_endp.o
 .debug_frame   0x0000000000004268       0x9c ../../src/USB/usb_bot.o
 .debug_frame   0x0000000000004304       0xb8 ../../src/USB/usb_pwr.o
 .debug_frame   0x00000000000043bc       0x30 ../../src/USB/usb_istr.o
 .debug_frame   0x00000000000043ec       0x2c /usr/bin/../lib/gcc/arm-none-eabi/4.8.3/../../../../arm-none-eabi/lib/armv7-m/libc.a(lib_a-memcmp.o)
 .debug_frame   0x0000000000004418       0x2c /usr/bin/../lib/gcc/arm-none-eabi/4.8.3/../../../../arm-none-eabi/lib/armv7-m/libc.a(lib_a-memmove.o)
 .debug_frame   0x0000000000004444       0x2c /usr/bin/../lib/gcc/arm-none-eabi/4.8.3/../../../../arm-none-eabi/lib/armv7-m/libc.a(lib_a-memset.o)
 .debug_frame   0x0000000000004470       0x20 /usr/bin/../lib/gcc/arm-none-eabi/4.8.3/../../../../arm-none-eabi/lib/armv7-m/libc.a(lib_a-strcpy.o)
 .debug_frame   0x0000000000004490       0x20 /usr/bin/../lib/gcc/arm-none-eabi/4.8.3/../../../../arm-none-eabi/lib/armv7-m/libc.a(lib_a-strlen.o)

.debug_str      0x0000000000000000     0x7fce
 *(.debug_str)
 .debug_str     0x0000000000000000      0x975 ../../src/main.o
                                        0xa03 (size before relaxing)
 .debug_str     0x0000000000000975      0x5e7 ../../src/hw_config.o
                                        0xd4d (size before relaxing)
 .debug_str     0x0000000000000f5c        0x0 ../../src/test_code.o
 .debug_str     0x0000000000000f5c       0x3b ../../src/memory_ops.o
                                        0x1f8 (size before relaxing)
 .debug_str     0x0000000000000f97      0x3fa ../../src/CCID/Ccid_usb.o
                                        0x5e9 (size before relaxing)
 .debug_str     0x0000000000001391      0x2b6 ../../src/CCID/Ifd_protocol.o
                                        0x4a8 (size before relaxing)
 .debug_str     0x0000000000001647      0x257 ../../src/CCID/Crd.o
                                        0x41d (size before relaxing)
 .debug_str     0x000000000000189e       0x2b ../../src/CCID/Ifd_ccid.o
                                        0x42c (size before relaxing)
 .debug_str     0x00000000000018c9      0x200 ../../src/CCID/CcidLocalAccess.o
                                        0x3e8 (size before relaxing)
 .debug_str     0x0000000000001ac9      0x792 ../../src/CCID/SMARTCARD/smartcard.o
                                       0x1198 (size before relaxing)
 .debug_str     0x000000000000225b      0x85d ../../src/CCID/CCIDHID_USB/CCIDHID_usb_prop.o
                                        0xe08 (size before relaxing)
 .debug_str     0x0000000000002ab8       0x2e ../../src/CCID/CCIDHID_USB/CCIDHID_usb_desc.o
                                        0x245 (size before relaxing)
 .debug_str     0x0000000000002ae6       0xae ../../src/SD_DISK/SD_USB/usb_desc.o
                                        0x221 (size before relaxing)
 .debug_str     0x0000000000002b94      0x1cf ../../src/SD_DISK/SD_USB/usb_prop.o
                                        0xa55 (size before relaxing)
 .debug_str     0x0000000000002d63       0x95 ../../src/STM/stm32f10x_systick.o
                                        0x296 (size before relaxing)
 .debug_str     0x0000000000002df8      0x112 ../../src/STM/stm32f10x_it.o
                                        0x446 (size before relaxing)
 .debug_str     0x0000000000002f0a      0x15e ../../src/STM/Libraries/CMSIS/Core/CM3/core_cm3.o
                                        0x321 (size before relaxing)
 .debug_str     0x0000000000003068      0x13b ../../src/STM/Libraries/CMSIS/Core/CM3/system_stm32f10x.o
                                        0x2f1 (size before relaxing)
 .debug_str     0x00000000000031a3       0xcd ../../src/STM/Libraries/CMSIS/Core/CM3/startup/gcc/startup_stm32f10x_hd.o
                                        0x1c1 (size before relaxing)
 .debug_str     0x0000000000003270       0xc6 ../../src/STM/Libraries/STM32F10x_StdPeriph_Driver/src/misc.o
                                        0x3ff (size before relaxing)
 .debug_str     0x0000000000003336      0x55d ../../src/STM/Libraries/STM32F10x_StdPeriph_Driver/src/stm32f10x_adc.o
                                        0x759 (size before relaxing)
 .debug_str     0x0000000000003893      0x343 ../../src/STM/Libraries/STM32F10x_StdPeriph_Driver/src/stm32f10x_bkp.o
                                        0x60f (size before relaxing)
 .debug_str     0x0000000000003bd6      0x473 ../../src/STM/Libraries/STM32F10x_StdPeriph_Driver/src/stm32f10x_can.o
                                        0x69d (size before relaxing)
 .debug_str     0x0000000000004049       0xc0 ../../src/STM/Libraries/STM32F10x_StdPeriph_Driver/src/stm32f10x_crc.o
                                        0x282 (size before relaxing)
 .debug_str     0x0000000000004109      0x219 ../../src/STM/Libraries/STM32F10x_StdPeriph_Driver/src/stm32f10x_dac.o
                                        0x3fb (size before relaxing)
 .debug_str     0x0000000000004322       0x9c ../../src/STM/Libraries/STM32F10x_StdPeriph_Driver/src/stm32f10x_dbgmcu.o
                                        0x239 (size before relaxing)
 .debug_str     0x00000000000043be      0x1f7 ../../src/STM/Libraries/STM32F10x_StdPeriph_Driver/src/stm32f10x_dma.o
                                        0x3d3 (size before relaxing)
 .debug_str     0x00000000000045b5      0x1cb ../../src/STM/Libraries/STM32F10x_StdPeriph_Driver/src/stm32f10x_exti.o
                                        0x390 (size before relaxing)
 .debug_str     0x0000000000004780      0x36d ../../src/STM/Libraries/STM32F10x_StdPeriph_Driver/src/stm32f10x_flash.o
                                        0x5be (size before relaxing)
 .debug_str     0x0000000000004aed      0x5c3 ../../src/STM/Libraries/STM32F10x_StdPeriph_Driver/src/stm32f10x_fsmc.o
                                        0x7ab (size before relaxing)
 .debug_str     0x00000000000050b0      0x1af ../../src/STM/Libraries/STM32F10x_StdPeriph_Driver/src/stm32f10x_gpio.o
                                        0x531 (size before relaxing)
 .debug_str     0x000000000000525f      0x398 ../../src/STM/Libraries/STM32F10x_StdPeriph_Driver/src/stm32f10x_i2c.o
                                        0x6ae (size before relaxing)
 .debug_str     0x00000000000055f7       0xe6 ../../src/STM/Libraries/STM32F10x_StdPeriph_Driver/src/stm32f10x_iwdg.o
                                        0x2a3 (size before relaxing)
 .debug_str     0x00000000000056dd      0x126 ../../src/STM/Libraries/STM32F10x_StdPeriph_Driver/src/stm32f10x_pwr.o
                                        0x30e (size before relaxing)
 .debug_str     0x0000000000005803      0x223 ../../src/STM/Libraries/STM32F10x_StdPeriph_Driver/src/stm32f10x_rcc.o
                                        0x661 (size before relaxing)
 .debug_str     0x0000000000005a26      0x19e ../../src/STM/Libraries/STM32F10x_StdPeriph_Driver/src/stm32f10x_rtc.o
                                        0x3d7 (size before relaxing)
 .debug_str     0x0000000000005bc4      0x47f ../../src/STM/Libraries/STM32F10x_StdPeriph_Driver/src/stm32f10x_sdio.o
                                        0x677 (size before relaxing)
 .debug_str     0x0000000000006043      0x363 ../../src/STM/Libraries/STM32F10x_StdPeriph_Driver/src/stm32f10x_spi.o
                                        0x678 (size before relaxing)
 .debug_str     0x00000000000063a6      0xa36 ../../src/STM/Libraries/STM32F10x_StdPeriph_Driver/src/stm32f10x_tim.o
                                        0xe4d (size before relaxing)
 .debug_str     0x0000000000006ddc      0x247 ../../src/STM/Libraries/STM32F10x_StdPeriph_Driver/src/stm32f10x_usart.o
                                        0x6ea (size before relaxing)
 .debug_str     0x0000000000007023       0xe2 ../../src/STM/Libraries/STM32F10x_StdPeriph_Driver/src/stm32f10x_wwdg.o
                                        0x2cb (size before relaxing)
 .debug_str     0x0000000000007105      0x39f ../../src/STM/Libraries/STM32_USB-FS-Device_Driver/src/usb_core.o
                                        0xb24 (size before relaxing)
 .debug_str     0x00000000000074a4       0x62 ../../src/STM/Libraries/STM32_USB-FS-Device_Driver/src/usb_init.o
                                        0x69b (size before relaxing)
 .debug_str     0x0000000000007506       0x6a ../../src/STM/Libraries/STM32_USB-FS-Device_Driver/src/usb_int.o
                                        0x25b (size before relaxing)
 .debug_str     0x0000000000007570       0x71 ../../src/STM/Libraries/STM32_USB-FS-Device_Driver/src/usb_mem.o
                                        0x234 (size before relaxing)
 .debug_str     0x00000000000075e1      0x33d ../../src/STM/Libraries/STM32_USB-FS-Device_Driver/src/usb_regs.o
                                        0x5bc (size before relaxing)
 .debug_str     0x000000000000791e        0x0 ../../src/CRYPT/AES/aes.o
 .debug_str     0x000000000000791e       0x72 ../../src/CRYPT/SHA1/sha1.o
                                        0x27e (size before relaxing)
 .debug_str     0x0000000000007990       0xa6 ../../src/CRYPT/SHA1/hmac-sha1.o
                                        0x2d0 (size before relaxing)
 .debug_str     0x0000000000007a36      0x179 ../../src/CRYPT/hotp.o
                                        0x48e (size before relaxing)
 .debug_str     0x0000000000007baf       0x6d ../../src/KEYBOARD/keyboard.o
                                        0x2c9 (size before relaxing)
 .debug_str     0x0000000000007c1c      0x177 ../../src/KEYBOARD/report_protocol.o
                                        0x467 (size before relaxing)
 .debug_str     0x0000000000007d93       0x6b ../../src/USB/usb_endp.o
                                        0x216 (size before relaxing)
 .debug_str     0x0000000000007dfe       0xce ../../src/USB/usb_bot.o
                                        0x33a (size before relaxing)
 .debug_str     0x0000000000007ecc       0xdd ../../src/USB/usb_pwr.o
                                        0x3e9 (size before relaxing)
 .debug_str     0x0000000000007fa9       0x25 ../../src/USB/usb_istr.o
                                        0x3c8 (size before relaxing)

.debug_loc      0x0000000000000000     0xfc32
 *(.debug_loc)
 .debug_loc     0x0000000000000000      0x24c ../../src/main.o
 .debug_loc     0x000000000000024c      0x479 ../../src/hw_config.o
 .debug_loc     0x00000000000006c5      0x1a5 ../../src/memory_ops.o
 .debug_loc     0x000000000000086a      0x302 ../../src/CCID/Ccid_usb.o
 .debug_loc     0x0000000000000b6c      0xb40 ../../src/CCID/Ifd_protocol.o
 .debug_loc     0x00000000000016ac      0x353 ../../src/CCID/Crd.o
 .debug_loc     0x00000000000019ff      0x43f ../../src/CCID/Ifd_ccid.o
 .debug_loc     0x0000000000001e3e      0x632 ../../src/CCID/CcidLocalAccess.o
 .debug_loc     0x0000000000002470     0x109e ../../src/CCID/SMARTCARD/smartcard.o
 .debug_loc     0x000000000000350e      0x3b7 ../../src/CCID/CCIDHID_USB/CCIDHID_usb_prop.o
 .debug_loc     0x00000000000038c5      0x1fa ../../src/SD_DISK/SD_USB/usb_prop.o
 .debug_loc     0x0000000000003abf       0xbb ../../src/STM/stm32f10x_systick.o
 .debug_loc     0x0000000000003b7a       0x20 ../../src/STM/stm32f10x_it.o
 .debug_loc     0x0000000000003b9a      0x33a ../../src/STM/Libraries/CMSIS/Core/CM3/core_cm3.o
 .debug_loc     0x0000000000003ed4       0x2c ../../src/STM/Libraries/CMSIS/Core/CM3/system_stm32f10x.o
 .debug_loc     0x0000000000003f00       0xfc ../../src/STM/Libraries/CMSIS/Core/CM3/startup/gcc/startup_stm32f10x_hd.o
 .debug_loc     0x0000000000003ffc      0x15d ../../src/STM/Libraries/STM32F10x_StdPeriph_Driver/src/misc.o
 .debug_loc     0x0000000000004159      0x99f ../../src/STM/Libraries/STM32F10x_StdPeriph_Driver/src/stm32f10x_adc.o
 .debug_loc     0x0000000000004af8      0x10e ../../src/STM/Libraries/STM32F10x_StdPeriph_Driver/src/stm32f10x_bkp.o
 .debug_loc     0x0000000000004c06      0x822 ../../src/STM/Libraries/STM32F10x_StdPeriph_Driver/src/stm32f10x_can.o
 .debug_loc     0x0000000000005428       0x75 ../../src/STM/Libraries/STM32F10x_StdPeriph_Driver/src/stm32f10x_crc.o
 .debug_loc     0x000000000000549d      0x20e ../../src/STM/Libraries/STM32F10x_StdPeriph_Driver/src/stm32f10x_dac.o
 .debug_loc     0x00000000000056ab       0x3a ../../src/STM/Libraries/STM32F10x_StdPeriph_Driver/src/stm32f10x_dbgmcu.o
 .debug_loc     0x00000000000056e5      0x197 ../../src/STM/Libraries/STM32F10x_StdPeriph_Driver/src/stm32f10x_dma.o
 .debug_loc     0x000000000000587c      0x184 ../../src/STM/Libraries/STM32F10x_StdPeriph_Driver/src/stm32f10x_exti.o
 .debug_loc     0x0000000000005a00      0x963 ../../src/STM/Libraries/STM32F10x_StdPeriph_Driver/src/stm32f10x_flash.o
 .debug_loc     0x0000000000006363      0x58e ../../src/STM/Libraries/STM32F10x_StdPeriph_Driver/src/stm32f10x_fsmc.o
 .debug_loc     0x00000000000068f1      0x6c7 ../../src/STM/Libraries/STM32F10x_StdPeriph_Driver/src/stm32f10x_gpio.o
 .debug_loc     0x0000000000006fb8      0x7d2 ../../src/STM/Libraries/STM32F10x_StdPeriph_Driver/src/stm32f10x_i2c.o
 .debug_loc     0x000000000000778a       0x62 ../../src/STM/Libraries/STM32F10x_StdPeriph_Driver/src/stm32f10x_iwdg.o
 .debug_loc     0x00000000000077ec      0x151 ../../src/STM/Libraries/STM32F10x_StdPeriph_Driver/src/stm32f10x_pwr.o
 .debug_loc     0x000000000000793d      0x7aa ../../src/STM/Libraries/STM32F10x_StdPeriph_Driver/src/stm32f10x_rcc.o
 .debug_loc     0x00000000000080e7      0x20e ../../src/STM/Libraries/STM32F10x_StdPeriph_Driver/src/stm32f10x_rtc.o
 .debug_loc     0x00000000000082f5      0x298 ../../src/STM/Libraries/STM32F10x_StdPeriph_Driver/src/stm32f10x_sdio.o
 .debug_loc     0x000000000000858d      0x56a ../../src/STM/Libraries/STM32F10x_StdPeriph_Driver/src/stm32f10x_spi.o
 .debug_loc     0x0000000000008af7     0x21a3 ../../src/STM/Libraries/STM32F10x_StdPeriph_Driver/src/stm32f10x_tim.o
 .debug_loc     0x000000000000ac9a      0xb0e ../../src/STM/Libraries/STM32F10x_StdPeriph_Driver/src/stm32f10x_usart.o
 .debug_loc     0x000000000000b7a8       0xf8 ../../src/STM/Libraries/STM32F10x_StdPeriph_Driver/src/stm32f10x_wwdg.o
 .debug_loc     0x000000000000b8a0      0xb18 ../../src/STM/Libraries/STM32_USB-FS-Device_Driver/src/usb_core.o
 .debug_loc     0x000000000000c3b8       0x40 ../../src/STM/Libraries/STM32_USB-FS-Device_Driver/src/usb_init.o
 .debug_loc     0x000000000000c3f8      0x1fe ../../src/STM/Libraries/STM32_USB-FS-Device_Driver/src/usb_int.o
 .debug_loc     0x000000000000c5f6      0x231 ../../src/STM/Libraries/STM32_USB-FS-Device_Driver/src/usb_mem.o
 .debug_loc     0x000000000000c827      0xbaf ../../src/STM/Libraries/STM32_USB-FS-Device_Driver/src/usb_regs.o
 .debug_loc     0x000000000000d3d6      0x655 ../../src/CRYPT/SHA1/sha1.o
 .debug_loc     0x000000000000da2b      0x3cb ../../src/CRYPT/SHA1/hmac-sha1.o
 .debug_loc     0x000000000000ddf6      0xf4c ../../src/CRYPT/hotp.o
 .debug_loc     0x000000000000ed42      0x402 ../../src/KEYBOARD/keyboard.o
 .debug_loc     0x000000000000f144      0x7dc ../../src/KEYBOARD/report_protocol.o
 .debug_loc     0x000000000000f920      0x146 ../../src/USB/usb_bot.o
 .debug_loc     0x000000000000fa66      0x1ac ../../src/USB/usb_pwr.o
 .debug_loc     0x000000000000fc12       0x20 ../../src/USB/usb_istr.o

.debug_macinfo
 *(.debug_macinfo)

.debug_weaknames
 *(.debug_weaknames)

.debug_funcnames
 *(.debug_funcnames)

.debug_typenames
 *(.debug_typenames)

.debug_varnames
 *(.debug_varnames)
OUTPUT(crypto.elf elf32-littlearm)

.debug_ranges   0x0000000000000000      0xc28
 .debug_ranges  0x0000000000000000       0xe0 ../../src/main.o
 .debug_ranges  0x00000000000000e0       0xa8 ../../src/hw_config.o
 .debug_ranges  0x0000000000000188       0x48 ../../src/CCID/Ifd_protocol.o
 .debug_ranges  0x00000000000001d0      0x110 ../../src/CCID/Crd.o
 .debug_ranges  0x00000000000002e0       0x80 ../../src/CCID/CcidLocalAccess.o
 .debug_ranges  0x0000000000000360      0x158 ../../src/CCID/SMARTCARD/smartcard.o
 .debug_ranges  0x00000000000004b8       0x30 ../../src/CCID/CCIDHID_USB/CCIDHID_usb_prop.o
 .debug_ranges  0x00000000000004e8       0x18 ../../src/SD_DISK/SD_USB/usb_prop.o
 .debug_ranges  0x0000000000000500       0x10 ../../src/STM/Libraries/CMSIS/Core/CM3/core_cm3.o
 .debug_ranges  0x0000000000000510       0x18 ../../src/STM/Libraries/CMSIS/Core/CM3/system_stm32f10x.o
 .debug_ranges  0x0000000000000528       0x80 ../../src/STM/Libraries/STM32F10x_StdPeriph_Driver/src/stm32f10x_can.o
 .debug_ranges  0x00000000000005a8       0x18 ../../src/STM/Libraries/STM32F10x_StdPeriph_Driver/src/stm32f10x_rcc.o
 .debug_ranges  0x00000000000005c0       0x60 ../../src/STM/Libraries/STM32F10x_StdPeriph_Driver/src/stm32f10x_rtc.o
 .debug_ranges  0x0000000000000620      0x198 ../../src/STM/Libraries/STM32F10x_StdPeriph_Driver/src/stm32f10x_tim.o
 .debug_ranges  0x00000000000007b8      0x108 ../../src/STM/Libraries/STM32_USB-FS-Device_Driver/src/usb_core.o
 .debug_ranges  0x00000000000008c0      0x1a8 ../../src/STM/Libraries/STM32_USB-FS-Device_Driver/src/usb_regs.o
 .debug_ranges  0x0000000000000a68       0x48 ../../src/CRYPT/SHA1/sha1.o
 .debug_ranges  0x0000000000000ab0       0x20 ../../src/CRYPT/hotp.o
 .debug_ranges  0x0000000000000ad0       0xc0 ../../src/KEYBOARD/keyboard.o
 .debug_ranges  0x0000000000000b90       0x68 ../../src/KEYBOARD/report_protocol.o
 .debug_ranges  0x0000000000000bf8       0x30 ../../src/USB/usb_pwr.o

Cross Reference Table

Symbol                                            File
ADC1_2_IRQHandler                                 ../../src/STM/Libraries/CMSIS/Core/CM3/startup/gcc/startup_stm32f10x_hd.o
ADC3_IRQHandler                                   ../../src/STM/Libraries/CMSIS/Core/CM3/startup/gcc/startup_stm32f10x_hd.o
ADC_AnalogWatchdogCmd                             ../../src/STM/Libraries/STM32F10x_StdPeriph_Driver/src/stm32f10x_adc.o
ADC_AnalogWatchdogSingleChannelConfig             ../../src/STM/Libraries/STM32F10x_StdPeriph_Driver/src/stm32f10x_adc.o
ADC_AnalogWatchdogThresholdsConfig                ../../src/STM/Libraries/STM32F10x_StdPeriph_Driver/src/stm32f10x_adc.o
ADC_AutoInjectedConvCmd                           ../../src/STM/Libraries/STM32F10x_StdPeriph_Driver/src/stm32f10x_adc.o
ADC_ClearFlag                                     ../../src/STM/Libraries/STM32F10x_StdPeriph_Driver/src/stm32f10x_adc.o
ADC_ClearITPendingBit                             ../../src/STM/Libraries/STM32F10x_StdPeriph_Driver/src/stm32f10x_adc.o
ADC_Cmd                                           ../../src/STM/Libraries/STM32F10x_StdPeriph_Driver/src/stm32f10x_adc.o
ADC_DMACmd                                        ../../src/STM/Libraries/STM32F10x_StdPeriph_Driver/src/stm32f10x_adc.o
ADC_DeInit                                        ../../src/STM/Libraries/STM32F10x_StdPeriph_Driver/src/stm32f10x_adc.o
ADC_DiscModeChannelCountConfig                    ../../src/STM/Libraries/STM32F10x_StdPeriph_Driver/src/stm32f10x_adc.o
ADC_DiscModeCmd                                   ../../src/STM/Libraries/STM32F10x_StdPeriph_Driver/src/stm32f10x_adc.o
ADC_ExternalTrigConvCmd                           ../../src/STM/Libraries/STM32F10x_StdPeriph_Driver/src/stm32f10x_adc.o
ADC_ExternalTrigInjectedConvCmd                   ../../src/STM/Libraries/STM32F10x_StdPeriph_Driver/src/stm32f10x_adc.o
ADC_ExternalTrigInjectedConvConfig                ../../src/STM/Libraries/STM32F10x_StdPeriph_Driver/src/stm32f10x_adc.o
ADC_GetCalibrationStatus                          ../../src/STM/Libraries/STM32F10x_StdPeriph_Driver/src/stm32f10x_adc.o
ADC_GetConversionValue                            ../../src/STM/Libraries/STM32F10x_StdPeriph_Driver/src/stm32f10x_adc.o
ADC_GetDualModeConversionValue                    ../../src/STM/Libraries/STM32F10x_StdPeriph_Driver/src/stm32f10x_adc.o
ADC_GetFlagStatus                                 ../../src/STM/Libraries/STM32F10x_StdPeriph_Driver/src/stm32f10x_adc.o
ADC_GetITStatus                                   ../../src/STM/Libraries/STM32F10x_StdPeriph_Driver/src/stm32f10x_adc.o
ADC_GetInjectedConversionValue                    ../../src/STM/Libraries/STM32F10x_StdPeriph_Driver/src/stm32f10x_adc.o
ADC_GetResetCalibrationStatus                     ../../src/STM/Libraries/STM32F10x_StdPeriph_Driver/src/stm32f10x_adc.o
ADC_GetSoftwareStartConvStatus                    ../../src/STM/Libraries/STM32F10x_StdPeriph_Driver/src/stm32f10x_adc.o
ADC_GetSoftwareStartInjectedConvCmdStatus         ../../src/STM/Libraries/STM32F10x_StdPeriph_Driver/src/stm32f10x_adc.o
ADC_ITConfig                                      ../../src/STM/Libraries/STM32F10x_StdPeriph_Driver/src/stm32f10x_adc.o
ADC_Init                                          ../../src/STM/Libraries/STM32F10x_StdPeriph_Driver/src/stm32f10x_adc.o
ADC_InjectedChannelConfig                         ../../src/STM/Libraries/STM32F10x_StdPeriph_Driver/src/stm32f10x_adc.o
ADC_InjectedDiscModeCmd                           ../../src/STM/Libraries/STM32F10x_StdPeriph_Driver/src/stm32f10x_adc.o
ADC_InjectedSequencerLengthConfig                 ../../src/STM/Libraries/STM32F10x_StdPeriph_Driver/src/stm32f10x_adc.o
ADC_RegularChannelConfig                          ../../src/STM/Libraries/STM32F10x_StdPeriph_Driver/src/stm32f10x_adc.o
ADC_ResetCalibration                              ../../src/STM/Libraries/STM32F10x_StdPeriph_Driver/src/stm32f10x_adc.o
ADC_SetInjectedOffset                             ../../src/STM/Libraries/STM32F10x_StdPeriph_Driver/src/stm32f10x_adc.o
ADC_SoftwareStartConvCmd                          ../../src/STM/Libraries/STM32F10x_StdPeriph_Driver/src/stm32f10x_adc.o
ADC_SoftwareStartInjectedConvCmd                  ../../src/STM/Libraries/STM32F10x_StdPeriph_Driver/src/stm32f10x_adc.o
ADC_StartCalibration                              ../../src/STM/Libraries/STM32F10x_StdPeriph_Driver/src/stm32f10x_adc.o
ADC_StructInit                                    ../../src/STM/Libraries/STM32F10x_StdPeriph_Driver/src/stm32f10x_adc.o
ADC_TempSensorVrefintCmd                          ../../src/STM/Libraries/STM32F10x_StdPeriph_Driver/src/stm32f10x_adc.o
AbortSequenceNumber                               ../../src/CCID/Ifd_ccid.o
                                                  ../../src/CCID/Ccid_usb.o
AccessTestGPG                                     ../../src/CCID/CcidLocalAccess.o
BKP_ClearFlag                                     ../../src/STM/Libraries/STM32F10x_StdPeriph_Driver/src/stm32f10x_bkp.o
BKP_ClearITPendingBit                             ../../src/STM/Libraries/STM32F10x_StdPeriph_Driver/src/stm32f10x_bkp.o
BKP_DeInit                                        ../../src/STM/Libraries/STM32F10x_StdPeriph_Driver/src/stm32f10x_bkp.o
BKP_GetFlagStatus                                 ../../src/STM/Libraries/STM32F10x_StdPeriph_Driver/src/stm32f10x_bkp.o
BKP_GetITStatus                                   ../../src/STM/Libraries/STM32F10x_StdPeriph_Driver/src/stm32f10x_bkp.o
BKP_ITConfig                                      ../../src/STM/Libraries/STM32F10x_StdPeriph_Driver/src/stm32f10x_bkp.o
BKP_RTCOutputConfig                               ../../src/STM/Libraries/STM32F10x_StdPeriph_Driver/src/stm32f10x_bkp.o
BKP_ReadBackupRegister                            ../../src/STM/Libraries/STM32F10x_StdPeriph_Driver/src/stm32f10x_bkp.o
BKP_SetRTCCalibrationValue                        ../../src/STM/Libraries/STM32F10x_StdPeriph_Driver/src/stm32f10x_bkp.o
BKP_TamperPinCmd                                  ../../src/STM/Libraries/STM32F10x_StdPeriph_Driver/src/stm32f10x_bkp.o
BKP_TamperPinLevelConfig                          ../../src/STM/Libraries/STM32F10x_StdPeriph_Driver/src/stm32f10x_bkp.o
BKP_WriteBackupRegister                           ../../src/STM/Libraries/STM32F10x_StdPeriph_Driver/src/stm32f10x_bkp.o
Bot_Abort                                         ../../src/USB/usb_bot.o
                                                  ../../src/SD_DISK/SD_USB/usb_prop.o
Bot_State                                         ../../src/USB/usb_bot.o
                                                  ../../src/SD_DISK/SD_USB/usb_prop.o
                                                  ../../src/CCID/CCIDHID_USB/CCIDHID_usb_prop.o
                                                  ../../src/CCID/Ccid_usb.o
BulkStatus                                        ../../src/CCID/Ccid_usb.o
Bulk_Data_Buff                                    ../../src/USB/usb_bot.o
                                                  ../../src/CCID/Ccid_usb.o
BusFault_Handler                                  ../../src/STM/stm32f10x_it.o
ByteSwap                                          ../../src/STM/Libraries/STM32_USB-FS-Device_Driver/src/usb_regs.o
                                                  ../../src/STM/Libraries/STM32_USB-FS-Device_Driver/src/usb_core.o
CAN1_RX1_IRQHandler                               ../../src/STM/Libraries/CMSIS/Core/CM3/startup/gcc/startup_stm32f10x_hd.o
CAN1_SCE_IRQHandler                               ../../src/STM/Libraries/CMSIS/Core/CM3/startup/gcc/startup_stm32f10x_hd.o
CAN_CancelTransmit                                ../../src/STM/Libraries/STM32F10x_StdPeriph_Driver/src/stm32f10x_can.o
CAN_ClearFlag                                     ../../src/STM/Libraries/STM32F10x_StdPeriph_Driver/src/stm32f10x_can.o
CAN_ClearITPendingBit                             ../../src/STM/Libraries/STM32F10x_StdPeriph_Driver/src/stm32f10x_can.o
CAN_DBGFreeze                                     ../../src/STM/Libraries/STM32F10x_StdPeriph_Driver/src/stm32f10x_can.o
CAN_DeInit                                        ../../src/STM/Libraries/STM32F10x_StdPeriph_Driver/src/stm32f10x_can.o
CAN_FIFORelease                                   ../../src/STM/Libraries/STM32F10x_StdPeriph_Driver/src/stm32f10x_can.o
CAN_FilterInit                                    ../../src/STM/Libraries/STM32F10x_StdPeriph_Driver/src/stm32f10x_can.o
CAN_GetFlagStatus                                 ../../src/STM/Libraries/STM32F10x_StdPeriph_Driver/src/stm32f10x_can.o
CAN_GetITStatus                                   ../../src/STM/Libraries/STM32F10x_StdPeriph_Driver/src/stm32f10x_can.o
CAN_ITConfig                                      ../../src/STM/Libraries/STM32F10x_StdPeriph_Driver/src/stm32f10x_can.o
CAN_Init                                          ../../src/STM/Libraries/STM32F10x_StdPeriph_Driver/src/stm32f10x_can.o
CAN_MessagePending                                ../../src/STM/Libraries/STM32F10x_StdPeriph_Driver/src/stm32f10x_can.o
CAN_Receive                                       ../../src/STM/Libraries/STM32F10x_StdPeriph_Driver/src/stm32f10x_can.o
CAN_Sleep                                         ../../src/STM/Libraries/STM32F10x_StdPeriph_Driver/src/stm32f10x_can.o
CAN_StructInit                                    ../../src/STM/Libraries/STM32F10x_StdPeriph_Driver/src/stm32f10x_can.o
CAN_Transmit                                      ../../src/STM/Libraries/STM32F10x_StdPeriph_Driver/src/stm32f10x_can.o
CAN_TransmitStatus                                ../../src/STM/Libraries/STM32F10x_StdPeriph_Driver/src/stm32f10x_can.o
CAN_WakeUp                                        ../../src/STM/Libraries/STM32F10x_StdPeriph_Driver/src/stm32f10x_can.o
CBW                                               ../../src/USB/usb_bot.o
                                                  ../../src/SD_DISK/SD_USB/usb_prop.o
                                                  ../../src/CCID/CCIDHID_USB/CCIDHID_usb_prop.o
CBW_Decode                                        ../../src/USB/usb_bot.o
CCID_Bot_Abort                                    ../../src/CCID/Ccid_usb.o
CCID_BulkInMessage                                ../../src/CCID/Ccid_usb.o
                                                  ../../src/USB/usb_endp.o
CCID_BulkOutMessage                               ../../src/CCID/Ccid_usb.o
                                                  ../../src/USB/usb_endp.o
CCID_CheckUsbCommunication                        ../../src/CCID/Ccid_usb.o
                                                  ../../src/CCID/SMARTCARD/smartcard.o
                                                  ../../src/main.o
CCID_ConfigDescriptor                             ../../src/CCID/CCIDHID_USB/CCIDHID_usb_desc.o
                                                  ../../src/CCID/CCIDHID_USB/CCIDHID_usb_prop.o
CCID_Config_Descriptor                            ../../src/CCID/CCIDHID_USB/CCIDHID_usb_prop.o
                                                  ../../src/STM/Libraries/STM32_USB-FS-Device_Driver/src/usb_init.o
CCID_DeviceDescriptor                             ../../src/CCID/CCIDHID_USB/CCIDHID_usb_desc.o
                                                  ../../src/CCID/CCIDHID_USB/CCIDHID_usb_prop.o
CCID_Device_Descriptor                            ../../src/CCID/CCIDHID_USB/CCIDHID_usb_prop.o
                                                  ../../src/STM/Libraries/STM32_USB-FS-Device_Driver/src/usb_init.o
CCID_Device_Info                                  ../../src/STM/Libraries/STM32_USB-FS-Device_Driver/src/usb_init.o
                                                  ../../src/CCID/CCIDHID_USB/CCIDHID_usb_prop.o
CCID_Device_Property                              ../../src/CCID/CCIDHID_USB/CCIDHID_usb_prop.o
                                                  ../../src/STM/Libraries/STM32_USB-FS-Device_Driver/src/usb_init.o
CCID_Device_Table                                 ../../src/CCID/CCIDHID_USB/CCIDHID_usb_prop.o
CCID_DispatchMessage                              ../../src/CCID/Ccid_usb.o
CCID_GetCardState                                 ../../src/CCID/Ccid_usb.o
CCID_Init                                         ../../src/CCID/Ccid_usb.o
                                                  ../../src/hw_config.o
CCID_Init_IT                                      ../../src/CCID/Ccid_usb.o
CCID_IntMessage                                   ../../src/CCID/Ccid_usb.o
CCID_SendCardDetect                               ../../src/CCID/Ccid_usb.o
                                                  ../../src/main.o
CCID_SetCardState                                 ../../src/CCID/Ccid_usb.o
                                                  ../../src/CCID/SMARTCARD/smartcard.o
CCID_Storage_Out                                  ../../src/CCID/Ccid_usb.o
CCID_StringInterface                              ../../src/CCID/CCIDHID_USB/CCIDHID_usb_desc.o
                                                  ../../src/CCID/CCIDHID_USB/CCIDHID_usb_prop.o
CCID_StringLangID                                 ../../src/CCID/CCIDHID_USB/CCIDHID_usb_desc.o
                                                  ../../src/CCID/CCIDHID_USB/CCIDHID_usb_prop.o
CCID_StringProduct                                ../../src/CCID/CCIDHID_USB/CCIDHID_usb_desc.o
                                                  ../../src/CCID/CCIDHID_USB/CCIDHID_usb_prop.o
CCID_StringSerial                                 ../../src/CCID/CCIDHID_USB/CCIDHID_usb_desc.o
                                                  ../../src/CCID/CCIDHID_USB/CCIDHID_usb_prop.o
                                                  ../../src/hw_config.o
CCID_StringVendor                                 ../../src/CCID/CCIDHID_USB/CCIDHID_usb_desc.o
                                                  ../../src/CCID/CCIDHID_USB/CCIDHID_usb_prop.o
CCID_String_Descriptor                            ../../src/CCID/CCIDHID_USB/CCIDHID_usb_prop.o
                                                  ../../src/STM/Libraries/STM32_USB-FS-Device_Driver/src/usb_init.o
CCID_Suspend_IT                                   ../../src/CCID/Ccid_usb.o
CCID_User_Standard_Requests                       ../../src/CCID/CCIDHID_USB/CCIDHID_usb_prop.o
                                                  ../../src/STM/Libraries/STM32_USB-FS-Device_Driver/src/usb_init.o
CHV1                                              ../../src/CCID/SMARTCARD/smartcard.o
CHV1Status                                        ../../src/CCID/SMARTCARD/smartcard.o
CRC_CalcBlockCRC                                  ../../src/STM/Libraries/STM32F10x_StdPeriph_Driver/src/stm32f10x_crc.o
                                                  ../../src/KEYBOARD/report_protocol.o
CRC_CalcCRC                                       ../../src/STM/Libraries/STM32F10x_StdPeriph_Driver/src/stm32f10x_crc.o
CRC_GetCRC                                        ../../src/STM/Libraries/STM32F10x_StdPeriph_Driver/src/stm32f10x_crc.o
CRC_GetIDRegister                                 ../../src/STM/Libraries/STM32F10x_StdPeriph_Driver/src/stm32f10x_crc.o
CRC_ResetDR                                       ../../src/STM/Libraries/STM32F10x_StdPeriph_Driver/src/stm32f10x_crc.o
                                                  ../../src/KEYBOARD/report_protocol.o
CRC_SetIDRegister                                 ../../src/STM/Libraries/STM32F10x_StdPeriph_Driver/src/stm32f10x_crc.o
CRD_CharRepeatOff                                 ../../src/CCID/Crd.o
CRD_CharRepeatOn                                  ../../src/CCID/Crd.o
CRD_EndReceive                                    ../../src/CCID/Crd.o
CRD_EndTransmit                                   ../../src/CCID/Crd.o
CRD_GetClockStatus                                ../../src/CCID/Crd.o
                                                  ../../src/CCID/Ifd_ccid.o
CRD_GetConvention                                 ../../src/CCID/Crd.o
                                                  ../../src/CCID/Ifd_protocol.o
CRD_GetHwError                                    ../../src/CCID/Crd.o
                                                  ../../src/CCID/Ifd_ccid.o
CRD_GetSlotStatus                                 ../../src/CCID/Crd.o
                                                  ../../src/CCID/Ifd_ccid.o
CRD_Init                                          ../../src/CCID/Crd.o
CRD_InitReceive                                   ../../src/CCID/Crd.o
CRD_InitTransmit                                  ../../src/CCID/Crd.o
CRD_NumberOfBytesToTransmit                       ../../src/CCID/Crd.o
CRD_SendCommand                                   ../../src/CCID/SMARTCARD/smartcard.o
                                                  ../../src/CCID/CcidLocalAccess.o
                                                  ../../src/CCID/Ifd_protocol.o
CRD_SetClock                                      ../../src/CCID/Crd.o
                                                  ../../src/CCID/Ifd_protocol.o
CRD_SetConvention                                 ../../src/CCID/Crd.o
CRD_SetEtu                                        ../../src/CCID/Crd.o
                                                  ../../src/CCID/Ifd_protocol.o
CRD_SetGuardTime                                  ../../src/CCID/Crd.o
                                                  ../../src/CCID/Ifd_protocol.o
CRD_SetMode                                       ../../src/CCID/Crd.o
CRD_SetWaitingTime                                ../../src/CCID/Crd.o
                                                  ../../src/CCID/Ifd_protocol.o
CRD_StartWaitingTime                              ../../src/CCID/Crd.o
CRD_StopWaitingTime                               ../../src/CCID/Crd.o
CRD_VccOff                                        ../../src/CCID/Crd.o
CRD_VccOff_IT                                     ../../src/CCID/Crd.o
                                                  ../../src/CCID/Ccid_usb.o
CRD_VccOn                                         ../../src/CCID/Crd.o
CRD_WaitingTime                                   ../../src/CCID/Crd.o
CSW                                               ../../src/USB/usb_bot.o
CTR_HP                                            ../../src/STM/Libraries/STM32_USB-FS-Device_Driver/src/usb_int.o
                                                  ../../src/STM/stm32f10x_it.o
CTR_LP                                            ../../src/STM/Libraries/STM32_USB-FS-Device_Driver/src/usb_int.o
                                                  ../../src/USB/usb_istr.o
CcidClassRequestAbort                             ../../src/CCID/Ccid_usb.o
CcidClassRequestGetClockFrequencies               ../../src/CCID/Ccid_usb.o
CcidClassRequestGetDataRates                      ../../src/CCID/Ccid_usb.o
CcidDecipher                                      ../../src/CCID/CcidLocalAccess.o
CcidGetData                                       ../../src/CCID/CcidLocalAccess.o
CcidLocalAccessTest                               ../../src/CCID/CcidLocalAccess.o
CcidSelectOpenPGPApp                              ../../src/CCID/CcidLocalAccess.o
CcidVerifyPin                                     ../../src/CCID/CcidLocalAccess.o
ClearDTOG_RX                                      ../../src/STM/Libraries/STM32_USB-FS-Device_Driver/src/usb_regs.o
                                                  ../../src/STM/Libraries/STM32_USB-FS-Device_Driver/src/usb_core.o
                                                  ../../src/SD_DISK/SD_USB/usb_prop.o
                                                  ../../src/CCID/CCIDHID_USB/CCIDHID_usb_prop.o
ClearDTOG_TX                                      ../../src/STM/Libraries/STM32_USB-FS-Device_Driver/src/usb_regs.o
                                                  ../../src/STM/Libraries/STM32_USB-FS-Device_Driver/src/usb_core.o
                                                  ../../src/SD_DISK/SD_USB/usb_prop.o
                                                  ../../src/CCID/CCIDHID_USB/CCIDHID_usb_prop.o
ClearEPDoubleBuff                                 ../../src/STM/Libraries/STM32_USB-FS-Device_Driver/src/usb_regs.o
ClearEP_CTR_RX                                    ../../src/STM/Libraries/STM32_USB-FS-Device_Driver/src/usb_regs.o
ClearEP_CTR_TX                                    ../../src/STM/Libraries/STM32_USB-FS-Device_Driver/src/usb_regs.o
ClearEP_KIND                                      ../../src/STM/Libraries/STM32_USB-FS-Device_Driver/src/usb_regs.o
Clear_Status_Out                                  ../../src/STM/Libraries/STM32_USB-FS-Device_Driver/src/usb_regs.o
                                                  ../../src/SD_DISK/SD_USB/usb_prop.o
                                                  ../../src/CCID/CCIDHID_USB/CCIDHID_usb_prop.o
CmdNotSupported                                   ../../src/CCID/Ifd_ccid.o
                                                  ../../src/CCID/Ccid_usb.o
Config_Descriptor                                 ../../src/SD_DISK/SD_USB/usb_prop.o
                                                  ../../src/STM/Libraries/STM32_USB-FS-Device_Driver/src/usb_init.o
                                                  ../../src/CCID/CCIDHID_USB/CCIDHID_usb_prop.o
CrdBufferSize                                     ../../src/CCID/Crd.o
CrdFlags                                          ../../src/CCID/Crd.o
                                                  ../../src/CCID/Ccid_usb.o
CrdNbData                                         ../../src/CCID/Crd.o
DAC_Cmd                                           ../../src/STM/Libraries/STM32F10x_StdPeriph_Driver/src/stm32f10x_dac.o
DAC_DMACmd                                        ../../src/STM/Libraries/STM32F10x_StdPeriph_Driver/src/stm32f10x_dac.o
DAC_DeInit                                        ../../src/STM/Libraries/STM32F10x_StdPeriph_Driver/src/stm32f10x_dac.o
DAC_DualSoftwareTriggerCmd                        ../../src/STM/Libraries/STM32F10x_StdPeriph_Driver/src/stm32f10x_dac.o
DAC_GetDataOutputValue                            ../../src/STM/Libraries/STM32F10x_StdPeriph_Driver/src/stm32f10x_dac.o
DAC_Init                                          ../../src/STM/Libraries/STM32F10x_StdPeriph_Driver/src/stm32f10x_dac.o
DAC_SetChannel1Data                               ../../src/STM/Libraries/STM32F10x_StdPeriph_Driver/src/stm32f10x_dac.o
DAC_SetChannel2Data                               ../../src/STM/Libraries/STM32F10x_StdPeriph_Driver/src/stm32f10x_dac.o
DAC_SetDualChannelData                            ../../src/STM/Libraries/STM32F10x_StdPeriph_Driver/src/stm32f10x_dac.o
DAC_SoftwareTriggerCmd                            ../../src/STM/Libraries/STM32F10x_StdPeriph_Driver/src/stm32f10x_dac.o
DAC_StructInit                                    ../../src/STM/Libraries/STM32F10x_StdPeriph_Driver/src/stm32f10x_dac.o
DAC_WaveGenerationCmd                             ../../src/STM/Libraries/STM32F10x_StdPeriph_Driver/src/stm32f10x_dac.o
DBGMCU_Config                                     ../../src/STM/Libraries/STM32F10x_StdPeriph_Driver/src/stm32f10x_dbgmcu.o
DBGMCU_GetDEVID                                   ../../src/STM/Libraries/STM32F10x_StdPeriph_Driver/src/stm32f10x_dbgmcu.o
DBGMCU_GetREVID                                   ../../src/STM/Libraries/STM32F10x_StdPeriph_Driver/src/stm32f10x_dbgmcu.o
DMA1_Channel1_IRQHandler                          ../../src/STM/Libraries/CMSIS/Core/CM3/startup/gcc/startup_stm32f10x_hd.o
DMA1_Channel2_IRQHandler                          ../../src/STM/Libraries/CMSIS/Core/CM3/startup/gcc/startup_stm32f10x_hd.o
DMA1_Channel3_IRQHandler                          ../../src/STM/Libraries/CMSIS/Core/CM3/startup/gcc/startup_stm32f10x_hd.o
DMA1_Channel4_IRQHandler                          ../../src/STM/Libraries/CMSIS/Core/CM3/startup/gcc/startup_stm32f10x_hd.o
DMA1_Channel5_IRQHandler                          ../../src/STM/Libraries/CMSIS/Core/CM3/startup/gcc/startup_stm32f10x_hd.o
DMA1_Channel6_IRQHandler                          ../../src/STM/Libraries/CMSIS/Core/CM3/startup/gcc/startup_stm32f10x_hd.o
DMA1_Channel7_IRQHandler                          ../../src/STM/Libraries/CMSIS/Core/CM3/startup/gcc/startup_stm32f10x_hd.o
DMA2_Channel1_IRQHandler                          ../../src/STM/Libraries/CMSIS/Core/CM3/startup/gcc/startup_stm32f10x_hd.o
DMA2_Channel2_IRQHandler                          ../../src/STM/Libraries/CMSIS/Core/CM3/startup/gcc/startup_stm32f10x_hd.o
DMA2_Channel3_IRQHandler                          ../../src/STM/Libraries/CMSIS/Core/CM3/startup/gcc/startup_stm32f10x_hd.o
DMA2_Channel4_5_IRQHandler                        ../../src/STM/Libraries/CMSIS/Core/CM3/startup/gcc/startup_stm32f10x_hd.o
DMA_ClearFlag                                     ../../src/STM/Libraries/STM32F10x_StdPeriph_Driver/src/stm32f10x_dma.o
DMA_ClearITPendingBit                             ../../src/STM/Libraries/STM32F10x_StdPeriph_Driver/src/stm32f10x_dma.o
DMA_Cmd                                           ../../src/STM/Libraries/STM32F10x_StdPeriph_Driver/src/stm32f10x_dma.o
DMA_DeInit                                        ../../src/STM/Libraries/STM32F10x_StdPeriph_Driver/src/stm32f10x_dma.o
DMA_GetCurrDataCounter                            ../../src/STM/Libraries/STM32F10x_StdPeriph_Driver/src/stm32f10x_dma.o
DMA_GetFlagStatus                                 ../../src/STM/Libraries/STM32F10x_StdPeriph_Driver/src/stm32f10x_dma.o
DMA_GetITStatus                                   ../../src/STM/Libraries/STM32F10x_StdPeriph_Driver/src/stm32f10x_dma.o
DMA_ITConfig                                      ../../src/STM/Libraries/STM32F10x_StdPeriph_Driver/src/stm32f10x_dma.o
DMA_Init                                          ../../src/STM/Libraries/STM32F10x_StdPeriph_Driver/src/stm32f10x_dma.o
DMA_StructInit                                    ../../src/STM/Libraries/STM32F10x_StdPeriph_Driver/src/stm32f10x_dma.o
Data_Len                                          ../../src/USB/usb_bot.o
                                                  ../../src/CCID/Ccid_usb.o
Data_Mul_MaxPacketSize                            ../../src/STM/Libraries/STM32_USB-FS-Device_Driver/src/usb_core.o
DebugMon_Handler                                  ../../src/STM/stm32f10x_it.o
Default_Handler                                   ../../src/STM/Libraries/CMSIS/Core/CM3/startup/gcc/startup_stm32f10x_hd.o
Delay                                             ../../src/CCID/SMARTCARD/smartcard.o
Delay_noUSBCheck                                  ../../src/CCID/SMARTCARD/smartcard.o
Device_Descriptor                                 ../../src/SD_DISK/SD_USB/usb_prop.o
                                                  ../../src/STM/Libraries/STM32_USB-FS-Device_Driver/src/usb_init.o
                                                  ../../src/CCID/CCIDHID_USB/CCIDHID_usb_prop.o
Device_Info                                       ../../src/STM/Libraries/STM32_USB-FS-Device_Driver/src/usb_init.o
                                                  ../../src/SD_DISK/SD_USB/usb_prop.o
                                                  ../../src/CCID/CCIDHID_USB/CCIDHID_usb_prop.o
                                                  ../../src/hw_config.o
Device_Property                                   ../../src/SD_DISK/SD_USB/usb_prop.o
                                                  ../../src/USB/usb_istr.o
                                                  ../../src/STM/Libraries/STM32_USB-FS-Device_Driver/src/usb_init.o
                                                  ../../src/STM/Libraries/STM32_USB-FS-Device_Driver/src/usb_core.o
                                                  ../../src/CCID/CCIDHID_USB/CCIDHID_usb_prop.o
Device_Table                                      ../../src/SD_DISK/SD_USB/usb_prop.o
                                                  ../../src/STM/Libraries/STM32_USB-FS-Device_Driver/src/usb_core.o
DisableFirmwareDownloadPort                       ../../src/hw_config.o
DisableSmartcardLED                               ../../src/hw_config.o
Dmul64vsDI                                        ../../src/CCID/Ifd_protocol.o
EP1_IN_Callback                                   ../../src/USB/usb_endp.o
                                                  ../../src/USB/usb_istr.o
EP2_IN_Callback                                   ../../src/USB/usb_endp.o
                                                  ../../src/USB/usb_istr.o
EP2_OUT_Callback                                  ../../src/USB/usb_endp.o
                                                  ../../src/USB/usb_istr.o
EP4_IN_Callback                                   ../../src/USB/usb_endp.o
                                                  ../../src/USB/usb_istr.o
EPindex                                           ../../src/STM/Libraries/STM32_USB-FS-Device_Driver/src/usb_int.o
                                                  ../../src/STM/Libraries/STM32_USB-FS-Device_Driver/src/usb_init.o
EXTI0_IRQHandler                                  ../../src/STM/Libraries/CMSIS/Core/CM3/startup/gcc/startup_stm32f10x_hd.o
EXTI15_10_IRQHandler                              ../../src/STM/Libraries/CMSIS/Core/CM3/startup/gcc/startup_stm32f10x_hd.o
EXTI1_IRQHandler                                  ../../src/STM/Libraries/CMSIS/Core/CM3/startup/gcc/startup_stm32f10x_hd.o
EXTI2_IRQHandler                                  ../../src/STM/Libraries/CMSIS/Core/CM3/startup/gcc/startup_stm32f10x_hd.o
EXTI3_IRQHandler                                  ../../src/STM/Libraries/CMSIS/Core/CM3/startup/gcc/startup_stm32f10x_hd.o
EXTI4_IRQHandler                                  ../../src/STM/Libraries/CMSIS/Core/CM3/startup/gcc/startup_stm32f10x_hd.o
EXTI9_5_IRQHandler                                ../../src/STM/Libraries/CMSIS/Core/CM3/startup/gcc/startup_stm32f10x_hd.o
EXTI_ClearFlag                                    ../../src/STM/Libraries/STM32F10x_StdPeriph_Driver/src/stm32f10x_exti.o
EXTI_ClearITPendingBit                            ../../src/STM/Libraries/STM32F10x_StdPeriph_Driver/src/stm32f10x_exti.o
EXTI_DeInit                                       ../../src/STM/Libraries/STM32F10x_StdPeriph_Driver/src/stm32f10x_exti.o
EXTI_GenerateSWInterrupt                          ../../src/STM/Libraries/STM32F10x_StdPeriph_Driver/src/stm32f10x_exti.o
EXTI_GetFlagStatus                                ../../src/STM/Libraries/STM32F10x_StdPeriph_Driver/src/stm32f10x_exti.o
EXTI_GetITStatus                                  ../../src/STM/Libraries/STM32F10x_StdPeriph_Driver/src/stm32f10x_exti.o
EXTI_Init                                         ../../src/STM/Libraries/STM32F10x_StdPeriph_Driver/src/stm32f10x_exti.o
EXTI_StructInit                                   ../../src/STM/Libraries/STM32F10x_StdPeriph_Driver/src/stm32f10x_exti.o
EnableButton                                      ../../src/hw_config.o
EnableOATHLED                                     ../../src/hw_config.o
EnableSmartcardLED                                ../../src/hw_config.o
EnableTimer2                                      ../../src/hw_config.o
Enter_LowPowerMode                                ../../src/hw_config.o
                                                  ../../src/USB/usb_pwr.o
FLASH_ClearFlag                                   ../../src/STM/Libraries/STM32F10x_StdPeriph_Driver/src/stm32f10x_flash.o
FLASH_EnableWriteProtection                       ../../src/STM/Libraries/STM32F10x_StdPeriph_Driver/src/stm32f10x_flash.o
FLASH_EraseAllPages                               ../../src/STM/Libraries/STM32F10x_StdPeriph_Driver/src/stm32f10x_flash.o
FLASH_EraseOptionBytes                            ../../src/STM/Libraries/STM32F10x_StdPeriph_Driver/src/stm32f10x_flash.o
FLASH_ErasePage                                   ../../src/STM/Libraries/STM32F10x_StdPeriph_Driver/src/stm32f10x_flash.o
                                                  ../../src/CRYPT/hotp.o
FLASH_GetFlagStatus                               ../../src/STM/Libraries/STM32F10x_StdPeriph_Driver/src/stm32f10x_flash.o
FLASH_GetPrefetchBufferStatus                     ../../src/STM/Libraries/STM32F10x_StdPeriph_Driver/src/stm32f10x_flash.o
FLASH_GetReadOutProtectionStatus                  ../../src/STM/Libraries/STM32F10x_StdPeriph_Driver/src/stm32f10x_flash.o
FLASH_GetStatus                                   ../../src/STM/Libraries/STM32F10x_StdPeriph_Driver/src/stm32f10x_flash.o
FLASH_GetUserOptionByte                           ../../src/STM/Libraries/STM32F10x_StdPeriph_Driver/src/stm32f10x_flash.o
FLASH_GetWriteProtectionOptionByte                ../../src/STM/Libraries/STM32F10x_StdPeriph_Driver/src/stm32f10x_flash.o
FLASH_HalfCycleAccessCmd                          ../../src/STM/Libraries/STM32F10x_StdPeriph_Driver/src/stm32f10x_flash.o
FLASH_IRQHandler                                  ../../src/STM/Libraries/CMSIS/Core/CM3/startup/gcc/startup_stm32f10x_hd.o
FLASH_ITConfig                                    ../../src/STM/Libraries/STM32F10x_StdPeriph_Driver/src/stm32f10x_flash.o
FLASH_Lock                                        ../../src/STM/Libraries/STM32F10x_StdPeriph_Driver/src/stm32f10x_flash.o
                                                  ../../src/CRYPT/hotp.o
FLASH_PrefetchBufferCmd                           ../../src/STM/Libraries/STM32F10x_StdPeriph_Driver/src/stm32f10x_flash.o
                                                  ../../src/CCID/SMARTCARD/smartcard.o
FLASH_ProgramHalfWord                             ../../src/STM/Libraries/STM32F10x_StdPeriph_Driver/src/stm32f10x_flash.o
                                                  ../../src/CRYPT/hotp.o
FLASH_ProgramOptionByteData                       ../../src/STM/Libraries/STM32F10x_StdPeriph_Driver/src/stm32f10x_flash.o
FLASH_ProgramWord                                 ../../src/STM/Libraries/STM32F10x_StdPeriph_Driver/src/stm32f10x_flash.o
                                                  ../../src/CRYPT/hotp.o
FLASH_ReadOutProtection                           ../../src/STM/Libraries/STM32F10x_StdPeriph_Driver/src/stm32f10x_flash.o
FLASH_SetLatency                                  ../../src/STM/Libraries/STM32F10x_StdPeriph_Driver/src/stm32f10x_flash.o
                                                  ../../src/CCID/SMARTCARD/smartcard.o
FLASH_Unlock                                      ../../src/STM/Libraries/STM32F10x_StdPeriph_Driver/src/stm32f10x_flash.o
                                                  ../../src/CRYPT/hotp.o
FLASH_UserOptionByteConfig                        ../../src/STM/Libraries/STM32F10x_StdPeriph_Driver/src/stm32f10x_flash.o
FLASH_WaitForLastOperation                        ../../src/STM/Libraries/STM32F10x_StdPeriph_Driver/src/stm32f10x_flash.o
FSMC_ClearFlag                                    ../../src/STM/Libraries/STM32F10x_StdPeriph_Driver/src/stm32f10x_fsmc.o
FSMC_ClearITPendingBit                            ../../src/STM/Libraries/STM32F10x_StdPeriph_Driver/src/stm32f10x_fsmc.o
FSMC_GetECC                                       ../../src/STM/Libraries/STM32F10x_StdPeriph_Driver/src/stm32f10x_fsmc.o
FSMC_GetFlagStatus                                ../../src/STM/Libraries/STM32F10x_StdPeriph_Driver/src/stm32f10x_fsmc.o
FSMC_GetITStatus                                  ../../src/STM/Libraries/STM32F10x_StdPeriph_Driver/src/stm32f10x_fsmc.o
FSMC_IRQHandler                                   ../../src/STM/Libraries/CMSIS/Core/CM3/startup/gcc/startup_stm32f10x_hd.o
FSMC_ITConfig                                     ../../src/STM/Libraries/STM32F10x_StdPeriph_Driver/src/stm32f10x_fsmc.o
FSMC_NANDCmd                                      ../../src/STM/Libraries/STM32F10x_StdPeriph_Driver/src/stm32f10x_fsmc.o
FSMC_NANDDeInit                                   ../../src/STM/Libraries/STM32F10x_StdPeriph_Driver/src/stm32f10x_fsmc.o
FSMC_NANDECCCmd                                   ../../src/STM/Libraries/STM32F10x_StdPeriph_Driver/src/stm32f10x_fsmc.o
FSMC_NANDInit                                     ../../src/STM/Libraries/STM32F10x_StdPeriph_Driver/src/stm32f10x_fsmc.o
FSMC_NANDStructInit                               ../../src/STM/Libraries/STM32F10x_StdPeriph_Driver/src/stm32f10x_fsmc.o
FSMC_NORSRAMCmd                                   ../../src/STM/Libraries/STM32F10x_StdPeriph_Driver/src/stm32f10x_fsmc.o
FSMC_NORSRAMDeInit                                ../../src/STM/Libraries/STM32F10x_StdPeriph_Driver/src/stm32f10x_fsmc.o
FSMC_NORSRAMInit                                  ../../src/STM/Libraries/STM32F10x_StdPeriph_Driver/src/stm32f10x_fsmc.o
FSMC_NORSRAMStructInit                            ../../src/STM/Libraries/STM32F10x_StdPeriph_Driver/src/stm32f10x_fsmc.o
FSMC_PCCARDCmd                                    ../../src/STM/Libraries/STM32F10x_StdPeriph_Driver/src/stm32f10x_fsmc.o
FSMC_PCCARDDeInit                                 ../../src/STM/Libraries/STM32F10x_StdPeriph_Driver/src/stm32f10x_fsmc.o
FSMC_PCCARDInit                                   ../../src/STM/Libraries/STM32F10x_StdPeriph_Driver/src/stm32f10x_fsmc.o
FSMC_PCCARDStructInit                             ../../src/STM/Libraries/STM32F10x_StdPeriph_Driver/src/stm32f10x_fsmc.o
FreeUserBuffer                                    ../../src/STM/Libraries/STM32_USB-FS-Device_Driver/src/usb_regs.o
FvsFI                                             ../../src/CCID/Ifd_protocol.o
GPIO_AFIODeInit                                   ../../src/STM/Libraries/STM32F10x_StdPeriph_Driver/src/stm32f10x_gpio.o
GPIO_Configuration_Smartcard                      ../../src/CCID/SMARTCARD/smartcard.o
GPIO_DeInit                                       ../../src/STM/Libraries/STM32F10x_StdPeriph_Driver/src/stm32f10x_gpio.o
GPIO_EXTILineConfig                               ../../src/STM/Libraries/STM32F10x_StdPeriph_Driver/src/stm32f10x_gpio.o
GPIO_EventOutputCmd                               ../../src/STM/Libraries/STM32F10x_StdPeriph_Driver/src/stm32f10x_gpio.o
GPIO_EventOutputConfig                            ../../src/STM/Libraries/STM32F10x_StdPeriph_Driver/src/stm32f10x_gpio.o
GPIO_Init                                         ../../src/STM/Libraries/STM32F10x_StdPeriph_Driver/src/stm32f10x_gpio.o
                                                  ../../src/CCID/SMARTCARD/smartcard.o
                                                  ../../src/hw_config.o
                                                  ../../src/main.o
GPIO_PinLockConfig                                ../../src/STM/Libraries/STM32F10x_StdPeriph_Driver/src/stm32f10x_gpio.o
GPIO_PinRemapConfig                               ../../src/STM/Libraries/STM32F10x_StdPeriph_Driver/src/stm32f10x_gpio.o
                                                  ../../src/CCID/SMARTCARD/smartcard.o
GPIO_ReadInputData                                ../../src/STM/Libraries/STM32F10x_StdPeriph_Driver/src/stm32f10x_gpio.o
GPIO_ReadInputDataBit                             ../../src/STM/Libraries/STM32F10x_StdPeriph_Driver/src/stm32f10x_gpio.o
                                                  ../../src/hw_config.o
GPIO_ReadOutputData                               ../../src/STM/Libraries/STM32F10x_StdPeriph_Driver/src/stm32f10x_gpio.o
GPIO_ReadOutputDataBit                            ../../src/STM/Libraries/STM32F10x_StdPeriph_Driver/src/stm32f10x_gpio.o
GPIO_ResetBits                                    ../../src/STM/Libraries/STM32F10x_StdPeriph_Driver/src/stm32f10x_gpio.o
                                                  ../../src/CCID/SMARTCARD/smartcard.o
                                                  ../../src/hw_config.o
                                                  ../../src/main.o
GPIO_SetBits                                      ../../src/STM/Libraries/STM32F10x_StdPeriph_Driver/src/stm32f10x_gpio.o
                                                  ../../src/CCID/SMARTCARD/smartcard.o
                                                  ../../src/hw_config.o
                                                  ../../src/main.o
GPIO_StructInit                                   ../../src/STM/Libraries/STM32F10x_StdPeriph_Driver/src/stm32f10x_gpio.o
GPIO_Write                                        ../../src/STM/Libraries/STM32F10x_StdPeriph_Driver/src/stm32f10x_gpio.o
GPIO_WriteBit                                     ../../src/STM/Libraries/STM32F10x_StdPeriph_Driver/src/stm32f10x_gpio.o
                                                  ../../src/CCID/SMARTCARD/smartcard.o
GSMDir                                            ../../src/CCID/SMARTCARD/smartcard.o
GenerateCRC                                       ../../src/CCID/CcidLocalAccess.o
GenerateChainedTPDU                               ../../src/CCID/CcidLocalAccess.o
GenerateTPDU                                      ../../src/CCID/CcidLocalAccess.o
GetBTABLE                                         ../../src/STM/Libraries/STM32_USB-FS-Device_Driver/src/usb_regs.o
GetCNTR                                           ../../src/STM/Libraries/STM32_USB-FS-Device_Driver/src/usb_regs.o
GetDADDR                                          ../../src/STM/Libraries/STM32_USB-FS-Device_Driver/src/usb_regs.o
GetENDPOINT                                       ../../src/STM/Libraries/STM32_USB-FS-Device_Driver/src/usb_regs.o
GetEPAddress                                      ../../src/STM/Libraries/STM32_USB-FS-Device_Driver/src/usb_regs.o
GetEPDblBuf0Addr                                  ../../src/STM/Libraries/STM32_USB-FS-Device_Driver/src/usb_regs.o
GetEPDblBuf0Count                                 ../../src/STM/Libraries/STM32_USB-FS-Device_Driver/src/usb_regs.o
GetEPDblBuf1Addr                                  ../../src/STM/Libraries/STM32_USB-FS-Device_Driver/src/usb_regs.o
GetEPDblBuf1Count                                 ../../src/STM/Libraries/STM32_USB-FS-Device_Driver/src/usb_regs.o
GetEPDblBufDir                                    ../../src/STM/Libraries/STM32_USB-FS-Device_Driver/src/usb_regs.o
GetEPRxAddr                                       ../../src/STM/Libraries/STM32_USB-FS-Device_Driver/src/usb_regs.o
                                                  ../../src/STM/Libraries/STM32_USB-FS-Device_Driver/src/usb_core.o
GetEPRxCount                                      ../../src/STM/Libraries/STM32_USB-FS-Device_Driver/src/usb_regs.o
                                                  ../../src/CCID/Ccid_usb.o
GetEPRxStatus                                     ../../src/STM/Libraries/STM32_USB-FS-Device_Driver/src/usb_regs.o
GetEPTxAddr                                       ../../src/STM/Libraries/STM32_USB-FS-Device_Driver/src/usb_regs.o
                                                  ../../src/STM/Libraries/STM32_USB-FS-Device_Driver/src/usb_core.o
GetEPTxCount                                      ../../src/STM/Libraries/STM32_USB-FS-Device_Driver/src/usb_regs.o
GetEPTxStatus                                     ../../src/STM/Libraries/STM32_USB-FS-Device_Driver/src/usb_regs.o
GetEPType                                         ../../src/STM/Libraries/STM32_USB-FS-Device_Driver/src/usb_regs.o
GetExpectedAnswerSizeFromAPDU                     ../../src/CCID/Ifd_protocol.o
GetFNR                                            ../../src/STM/Libraries/STM32_USB-FS-Device_Driver/src/usb_regs.o
GetISTR                                           ../../src/STM/Libraries/STM32_USB-FS-Device_Driver/src/usb_regs.o
GetRxStallStatus                                  ../../src/STM/Libraries/STM32_USB-FS-Device_Driver/src/usb_regs.o
GetTxStallStatus                                  ../../src/STM/Libraries/STM32_USB-FS-Device_Driver/src/usb_regs.o
Get_Max_Lun                                       ../../src/SD_DISK/SD_USB/usb_prop.o
Get_SerialNum                                     ../../src/hw_config.o
                                                  ../../src/SD_DISK/SD_USB/usb_prop.o
                                                  ../../src/CCID/CCIDHID_USB/CCIDHID_usb_prop.o
HID_GetReport_Value                               ../../src/CCID/CCIDHID_USB/CCIDHID_usb_prop.o
HID_GetReport_Value_tmp                           ../../src/CCID/CCIDHID_USB/CCIDHID_usb_prop.o
                                                  ../../src/main.o
HID_SetReport_Value                               ../../src/CCID/CCIDHID_USB/CCIDHID_usb_prop.o
HID_SetReport_Value_tmp                           ../../src/CCID/CCIDHID_USB/CCIDHID_usb_prop.o
                                                  ../../src/main.o
HardFault_Handler                                 ../../src/STM/stm32f10x_it.o
                                                  ../../src/STM/Libraries/CMSIS/Core/CM3/startup/gcc/startup_stm32f10x_hd.o
HexToAscii                                        ../../src/hw_config.o
I2C1_ER_IRQHandler                                ../../src/STM/Libraries/CMSIS/Core/CM3/startup/gcc/startup_stm32f10x_hd.o
I2C1_EV_IRQHandler                                ../../src/STM/Libraries/CMSIS/Core/CM3/startup/gcc/startup_stm32f10x_hd.o
I2C2_ER_IRQHandler                                ../../src/STM/Libraries/CMSIS/Core/CM3/startup/gcc/startup_stm32f10x_hd.o
I2C2_EV_IRQHandler                                ../../src/STM/Libraries/CMSIS/Core/CM3/startup/gcc/startup_stm32f10x_hd.o
I2C_ARPCmd                                        ../../src/STM/Libraries/STM32F10x_StdPeriph_Driver/src/stm32f10x_i2c.o
I2C_AcknowledgeConfig                             ../../src/STM/Libraries/STM32F10x_StdPeriph_Driver/src/stm32f10x_i2c.o
I2C_CalculatePEC                                  ../../src/STM/Libraries/STM32F10x_StdPeriph_Driver/src/stm32f10x_i2c.o
I2C_CheckEvent                                    ../../src/STM/Libraries/STM32F10x_StdPeriph_Driver/src/stm32f10x_i2c.o
I2C_ClearFlag                                     ../../src/STM/Libraries/STM32F10x_StdPeriph_Driver/src/stm32f10x_i2c.o
I2C_ClearITPendingBit                             ../../src/STM/Libraries/STM32F10x_StdPeriph_Driver/src/stm32f10x_i2c.o
I2C_Cmd                                           ../../src/STM/Libraries/STM32F10x_StdPeriph_Driver/src/stm32f10x_i2c.o
I2C_DMACmd                                        ../../src/STM/Libraries/STM32F10x_StdPeriph_Driver/src/stm32f10x_i2c.o
I2C_DMALastTransferCmd                            ../../src/STM/Libraries/STM32F10x_StdPeriph_Driver/src/stm32f10x_i2c.o
I2C_DeInit                                        ../../src/STM/Libraries/STM32F10x_StdPeriph_Driver/src/stm32f10x_i2c.o
I2C_DualAddressCmd                                ../../src/STM/Libraries/STM32F10x_StdPeriph_Driver/src/stm32f10x_i2c.o
I2C_FastModeDutyCycleConfig                       ../../src/STM/Libraries/STM32F10x_StdPeriph_Driver/src/stm32f10x_i2c.o
I2C_GeneralCallCmd                                ../../src/STM/Libraries/STM32F10x_StdPeriph_Driver/src/stm32f10x_i2c.o
I2C_GenerateSTART                                 ../../src/STM/Libraries/STM32F10x_StdPeriph_Driver/src/stm32f10x_i2c.o
I2C_GenerateSTOP                                  ../../src/STM/Libraries/STM32F10x_StdPeriph_Driver/src/stm32f10x_i2c.o
I2C_GetFlagStatus                                 ../../src/STM/Libraries/STM32F10x_StdPeriph_Driver/src/stm32f10x_i2c.o
I2C_GetITStatus                                   ../../src/STM/Libraries/STM32F10x_StdPeriph_Driver/src/stm32f10x_i2c.o
I2C_GetLastEvent                                  ../../src/STM/Libraries/STM32F10x_StdPeriph_Driver/src/stm32f10x_i2c.o
I2C_GetPEC                                        ../../src/STM/Libraries/STM32F10x_StdPeriph_Driver/src/stm32f10x_i2c.o
I2C_ITConfig                                      ../../src/STM/Libraries/STM32F10x_StdPeriph_Driver/src/stm32f10x_i2c.o
I2C_Init                                          ../../src/STM/Libraries/STM32F10x_StdPeriph_Driver/src/stm32f10x_i2c.o
I2C_OwnAddress2Config                             ../../src/STM/Libraries/STM32F10x_StdPeriph_Driver/src/stm32f10x_i2c.o
I2C_PECPositionConfig                             ../../src/STM/Libraries/STM32F10x_StdPeriph_Driver/src/stm32f10x_i2c.o
I2C_ReadRegister                                  ../../src/STM/Libraries/STM32F10x_StdPeriph_Driver/src/stm32f10x_i2c.o
I2C_ReceiveData                                   ../../src/STM/Libraries/STM32F10x_StdPeriph_Driver/src/stm32f10x_i2c.o
I2C_SMBusAlertConfig                              ../../src/STM/Libraries/STM32F10x_StdPeriph_Driver/src/stm32f10x_i2c.o
I2C_Send7bitAddress                               ../../src/STM/Libraries/STM32F10x_StdPeriph_Driver/src/stm32f10x_i2c.o
I2C_SendData                                      ../../src/STM/Libraries/STM32F10x_StdPeriph_Driver/src/stm32f10x_i2c.o
I2C_SoftwareResetCmd                              ../../src/STM/Libraries/STM32F10x_StdPeriph_Driver/src/stm32f10x_i2c.o
I2C_StretchClockCmd                               ../../src/STM/Libraries/STM32F10x_StdPeriph_Driver/src/stm32f10x_i2c.o
I2C_StructInit                                    ../../src/STM/Libraries/STM32F10x_StdPeriph_Driver/src/stm32f10x_i2c.o
I2C_TransmitPEC                                   ../../src/STM/Libraries/STM32F10x_StdPeriph_Driver/src/stm32f10x_i2c.o
I2S_Cmd                                           ../../src/STM/Libraries/STM32F10x_StdPeriph_Driver/src/stm32f10x_spi.o
I2S_Init                                          ../../src/STM/Libraries/STM32F10x_StdPeriph_Driver/src/stm32f10x_spi.o
I2S_StructInit                                    ../../src/STM/Libraries/STM32F10x_StdPeriph_Driver/src/stm32f10x_spi.o
ICCID                                             ../../src/CCID/SMARTCARD/smartcard.o
ICCID_Content                                     ../../src/CCID/SMARTCARD/smartcard.o
ICC_ReceiveAnswerAsync                            ../../src/CCID/Crd.o
ICC_ResetAsync                                    ../../src/CCID/Crd.o
ICC_SendCommandAsync                              ../../src/CCID/Crd.o
IFD_ApplyParametersStructure                      ../../src/CCID/Ifd_protocol.o
IFD_Escape                                        ../../src/CCID/Ifd_protocol.o
                                                  ../../src/CCID/Ifd_ccid.o
IFD_EscapeSendHwName                              ../../src/CCID/Ifd_protocol.o
IFD_GetParameters                                 ../../src/CCID/Ifd_protocol.o
                                                  ../../src/CCID/Ifd_ccid.o
IFD_Init                                          ../../src/CCID/Ifd_protocol.o
IFD_SetATRData                                    ../../src/CCID/Ifd_protocol.o
                                                  ../../src/CCID/Ccid_usb.o
IFD_SetClock                                      ../../src/CCID/Ifd_protocol.o
                                                  ../../src/CCID/Ifd_ccid.o
IFD_SetParameters                                 ../../src/CCID/Ifd_protocol.o
                                                  ../../src/CCID/Ifd_ccid.o
IFD_UpdateConvParameterStructure                  ../../src/CCID/Ifd_protocol.o
IFD_XfrBlock                                      ../../src/CCID/Ifd_protocol.o
                                                  ../../src/CCID/Ifd_ccid.o
IFD_XfrCharT0                                     ../../src/CCID/Ifd_protocol.o
IFD_XfrCharT1                                     ../../src/CCID/Ifd_protocol.o
IFD_XfrTpduT0                                     ../../src/CCID/Ifd_protocol.o
IFD_XfrTpduT1                                     ../../src/CCID/Ifd_protocol.o
IMSI                                              ../../src/CCID/SMARTCARD/smartcard.o
IMSI_Content                                      ../../src/CCID/SMARTCARD/smartcard.o
IWDG_Enable                                       ../../src/STM/Libraries/STM32F10x_StdPeriph_Driver/src/stm32f10x_iwdg.o
IWDG_GetFlagStatus                                ../../src/STM/Libraries/STM32F10x_StdPeriph_Driver/src/stm32f10x_iwdg.o
IWDG_ReloadCounter                                ../../src/STM/Libraries/STM32F10x_StdPeriph_Driver/src/stm32f10x_iwdg.o
IWDG_SetPrescaler                                 ../../src/STM/Libraries/STM32F10x_StdPeriph_Driver/src/stm32f10x_iwdg.o
IWDG_SetReload                                    ../../src/STM/Libraries/STM32F10x_StdPeriph_Driver/src/stm32f10x_iwdg.o
IWDG_WriteAccessCmd                               ../../src/STM/Libraries/STM32F10x_StdPeriph_Driver/src/stm32f10x_iwdg.o
In0_Process                                       ../../src/STM/Libraries/STM32_USB-FS-Device_Driver/src/usb_core.o
                                                  ../../src/STM/Libraries/STM32_USB-FS-Device_Driver/src/usb_int.o
InitSCTStruct                                     ../../src/CCID/CcidLocalAccess.o
InstructionByte                                   ../../src/CCID/Crd.o
InvalidateATR                                     ../../src/CCID/SMARTCARD/smartcard.o
Keyboard_GetHIDDescriptor                         ../../src/CCID/CCIDHID_USB/CCIDHID_usb_prop.o
Keyboard_GetProtocolValue                         ../../src/CCID/CCIDHID_USB/CCIDHID_usb_prop.o
Keyboard_GetReportDescriptor                      ../../src/CCID/CCIDHID_USB/CCIDHID_usb_prop.o
Keyboard_GetReport_Feature                        ../../src/CCID/CCIDHID_USB/CCIDHID_usb_prop.o
Keyboard_Hid_Descriptor                           ../../src/CCID/CCIDHID_USB/CCIDHID_usb_prop.o
Keyboard_ReportDescriptor                         ../../src/CCID/CCIDHID_USB/CCIDHID_usb_desc.o
                                                  ../../src/CCID/CCIDHID_USB/CCIDHID_usb_prop.o
Keyboard_Report_Descriptor                        ../../src/CCID/CCIDHID_USB/CCIDHID_usb_prop.o
Keyboard_SetProtocol                              ../../src/CCID/CCIDHID_USB/CCIDHID_usb_prop.o
Keyboard_SetReport_Feature                        ../../src/CCID/CCIDHID_USB/CCIDHID_usb_prop.o
Keyboard_SetReport_Output                         ../../src/CCID/CCIDHID_USB/CCIDHID_usb_prop.o
Leave_LowPowerMode                                ../../src/hw_config.o
                                                  ../../src/USB/usb_pwr.o
MAL_Config                                        ../../src/hw_config.o
MASS_ConfigDescriptor                             ../../src/SD_DISK/SD_USB/usb_desc.o
                                                  ../../src/SD_DISK/SD_USB/usb_prop.o
MASS_Config_Descriptor                            ../../src/SD_DISK/SD_USB/usb_prop.o
MASS_Data_Setup                                   ../../src/SD_DISK/SD_USB/usb_prop.o
MASS_DeviceDescriptor                             ../../src/SD_DISK/SD_USB/usb_desc.o
                                                  ../../src/SD_DISK/SD_USB/usb_prop.o
MASS_Device_Descriptor                            ../../src/SD_DISK/SD_USB/usb_prop.o
MASS_Device_Info                                  ../../src/SD_DISK/SD_USB/usb_prop.o
MASS_Device_Property                              ../../src/SD_DISK/SD_USB/usb_prop.o
MASS_Device_Table                                 ../../src/SD_DISK/SD_USB/usb_prop.o
MASS_GetConfigDescriptor                          ../../src/SD_DISK/SD_USB/usb_prop.o
MASS_GetDeviceDescriptor                          ../../src/SD_DISK/SD_USB/usb_prop.o
MASS_GetStringDescriptor                          ../../src/SD_DISK/SD_USB/usb_prop.o
MASS_Get_Interface_Setting                        ../../src/SD_DISK/SD_USB/usb_prop.o
MASS_NoData_Setup                                 ../../src/SD_DISK/SD_USB/usb_prop.o
MASS_Reset                                        ../../src/SD_DISK/SD_USB/usb_prop.o
MASS_Status_In                                    ../../src/SD_DISK/SD_USB/usb_prop.o
MASS_Status_Out                                   ../../src/SD_DISK/SD_USB/usb_prop.o
MASS_StringInterface                              ../../src/SD_DISK/SD_USB/usb_desc.o
                                                  ../../src/SD_DISK/SD_USB/usb_prop.o
MASS_StringLangID                                 ../../src/SD_DISK/SD_USB/usb_desc.o
                                                  ../../src/SD_DISK/SD_USB/usb_prop.o
MASS_StringProduct                                ../../src/SD_DISK/SD_USB/usb_desc.o
                                                  ../../src/SD_DISK/SD_USB/usb_prop.o
MASS_StringSerial                                 ../../src/SD_DISK/SD_USB/usb_desc.o
                                                  ../../src/SD_DISK/SD_USB/usb_prop.o
MASS_StringVendor                                 ../../src/SD_DISK/SD_USB/usb_desc.o
                                                  ../../src/SD_DISK/SD_USB/usb_prop.o
MASS_String_Descriptor                            ../../src/SD_DISK/SD_USB/usb_prop.o
MASS_User_Standard_Requests                       ../../src/SD_DISK/SD_USB/usb_prop.o
MASS_init                                         ../../src/SD_DISK/SD_USB/usb_prop.o
Mass_Storage_ClearFeature                         ../../src/SD_DISK/SD_USB/usb_prop.o
Mass_Storage_In                                   ../../src/USB/usb_bot.o
Mass_Storage_Out                                  ../../src/USB/usb_bot.o
Mass_Storage_SetConfiguration                     ../../src/SD_DISK/SD_USB/usb_prop.o
Mass_Storage_SetDeviceAddress                     ../../src/SD_DISK/SD_USB/usb_prop.o
MasterRoot                                        ../../src/CCID/SMARTCARD/smartcard.o
Max_Lun                                           ../../src/SD_DISK/SD_USB/usb_prop.o
MemManage_Handler                                 ../../src/STM/stm32f10x_it.o
NMI_Handler                                       ../../src/STM/stm32f10x_it.o
NOP_Process                                       ../../src/STM/Libraries/STM32_USB-FS-Device_Driver/src/usb_core.o
                                                  ../../src/USB/usb_istr.o
                                                  ../../src/SD_DISK/SD_USB/usb_prop.o
                                                  ../../src/CCID/CCIDHID_USB/CCIDHID_usb_prop.o
NVIC_Init                                         ../../src/STM/Libraries/STM32F10x_StdPeriph_Driver/src/misc.o
                                                  ../../src/CCID/SMARTCARD/smartcard.o
                                                  ../../src/hw_config.o
NVIC_PriorityGroupConfig                          ../../src/STM/Libraries/STM32F10x_StdPeriph_Driver/src/misc.o
                                                  ../../src/CCID/SMARTCARD/smartcard.o
                                                  ../../src/hw_config.o
NVIC_SetVectorTable                               ../../src/STM/Libraries/STM32F10x_StdPeriph_Driver/src/misc.o
                                                  ../../src/CCID/SMARTCARD/smartcard.o
NVIC_SystemLPConfig                               ../../src/STM/Libraries/STM32F10x_StdPeriph_Driver/src/misc.o
Out0_Process                                      ../../src/STM/Libraries/STM32_USB-FS-Device_Driver/src/usb_core.o
                                                  ../../src/STM/Libraries/STM32_USB-FS-Device_Driver/src/usb_int.o
PC_to_RDR_Abort                                   ../../src/CCID/Ifd_ccid.o
                                                  ../../src/CCID/Ccid_usb.o
PC_to_RDR_Escape                                  ../../src/CCID/Ifd_ccid.o
                                                  ../../src/CCID/Ccid_usb.o
PC_to_RDR_GetParameters                           ../../src/CCID/Ifd_ccid.o
                                                  ../../src/CCID/Ccid_usb.o
PC_to_RDR_GetSlotStatus                           ../../src/CCID/Ifd_ccid.o
                                                  ../../src/CCID/Ccid_usb.o
PC_to_RDR_IccClock                                ../../src/CCID/Ifd_ccid.o
                                                  ../../src/CCID/Ccid_usb.o
PC_to_RDR_IccPowerOff                             ../../src/CCID/Ifd_ccid.o
                                                  ../../src/CCID/Ccid_usb.o
PC_to_RDR_IccPowerOn                              ../../src/CCID/Ifd_ccid.o
                                                  ../../src/CCID/Ccid_usb.o
PC_to_RDR_ResetParameters                         ../../src/CCID/Ifd_ccid.o
                                                  ../../src/CCID/Ccid_usb.o
PC_to_RDR_SetParameters                           ../../src/CCID/Ifd_ccid.o
                                                  ../../src/CCID/Ccid_usb.o
PC_to_RDR_XfrBlock                                ../../src/CCID/Ifd_ccid.o
                                                  ../../src/CCID/Ccid_usb.o
PMAToUserBufferCopy                               ../../src/STM/Libraries/STM32_USB-FS-Device_Driver/src/usb_mem.o
                                                  ../../src/STM/Libraries/STM32_USB-FS-Device_Driver/src/usb_core.o
                                                  ../../src/CCID/Ccid_usb.o
PVD_IRQHandler                                    ../../src/STM/Libraries/CMSIS/Core/CM3/startup/gcc/startup_stm32f10x_hd.o
PWR_BackupAccessCmd                               ../../src/STM/Libraries/STM32F10x_StdPeriph_Driver/src/stm32f10x_pwr.o
PWR_ClearFlag                                     ../../src/STM/Libraries/STM32F10x_StdPeriph_Driver/src/stm32f10x_pwr.o
PWR_DeInit                                        ../../src/STM/Libraries/STM32F10x_StdPeriph_Driver/src/stm32f10x_pwr.o
PWR_EnterSTANDBYMode                              ../../src/STM/Libraries/STM32F10x_StdPeriph_Driver/src/stm32f10x_pwr.o
PWR_EnterSTOPMode                                 ../../src/STM/Libraries/STM32F10x_StdPeriph_Driver/src/stm32f10x_pwr.o
PWR_GetFlagStatus                                 ../../src/STM/Libraries/STM32F10x_StdPeriph_Driver/src/stm32f10x_pwr.o
PWR_PVDCmd                                        ../../src/STM/Libraries/STM32F10x_StdPeriph_Driver/src/stm32f10x_pwr.o
PWR_PVDLevelConfig                                ../../src/STM/Libraries/STM32F10x_StdPeriph_Driver/src/stm32f10x_pwr.o
PWR_WakeUpPinCmd                                  ../../src/STM/Libraries/STM32F10x_StdPeriph_Driver/src/stm32f10x_pwr.o
PendSV_Handler                                    ../../src/STM/stm32f10x_it.o
Post0_Process                                     ../../src/STM/Libraries/STM32_USB-FS-Device_Driver/src/usb_core.o
PowerOff                                          ../../src/USB/usb_pwr.o
PowerOn                                           ../../src/USB/usb_pwr.o
                                                  ../../src/SD_DISK/SD_USB/usb_prop.o
                                                  ../../src/CCID/CCIDHID_USB/CCIDHID_usb_prop.o
PrevXferComplete                                  ../../src/KEYBOARD/keyboard.o
                                                  ../../src/USB/usb_endp.o
ProcedureByte                                     ../../src/CCID/Crd.o
ProtocolValue                                     ../../src/CCID/CCIDHID_USB/CCIDHID_usb_prop.o
RCC_ADCCLKConfig                                  ../../src/STM/Libraries/STM32F10x_StdPeriph_Driver/src/stm32f10x_rcc.o
RCC_AHBPeriphClockCmd                             ../../src/STM/Libraries/STM32F10x_StdPeriph_Driver/src/stm32f10x_rcc.o
                                                  ../../src/hw_config.o
RCC_APB1PeriphClockCmd                            ../../src/STM/Libraries/STM32F10x_StdPeriph_Driver/src/stm32f10x_rcc.o
                                                  ../../src/hw_config.o
RCC_APB1PeriphResetCmd                            ../../src/STM/Libraries/STM32F10x_StdPeriph_Driver/src/stm32f10x_rcc.o
                                                  ../../src/STM/Libraries/STM32F10x_StdPeriph_Driver/src/stm32f10x_wwdg.o
                                                  ../../src/STM/Libraries/STM32F10x_StdPeriph_Driver/src/stm32f10x_usart.o
                                                  ../../src/STM/Libraries/STM32F10x_StdPeriph_Driver/src/stm32f10x_tim.o
                                                  ../../src/STM/Libraries/STM32F10x_StdPeriph_Driver/src/stm32f10x_spi.o
                                                  ../../src/STM/Libraries/STM32F10x_StdPeriph_Driver/src/stm32f10x_pwr.o
                                                  ../../src/STM/Libraries/STM32F10x_StdPeriph_Driver/src/stm32f10x_i2c.o
                                                  ../../src/STM/Libraries/STM32F10x_StdPeriph_Driver/src/stm32f10x_dac.o
                                                  ../../src/STM/Libraries/STM32F10x_StdPeriph_Driver/src/stm32f10x_can.o
RCC_APB2PeriphClockCmd                            ../../src/STM/Libraries/STM32F10x_StdPeriph_Driver/src/stm32f10x_rcc.o
                                                  ../../src/CCID/SMARTCARD/smartcard.o
                                                  ../../src/hw_config.o
                                                  ../../src/main.o
RCC_APB2PeriphResetCmd                            ../../src/STM/Libraries/STM32F10x_StdPeriph_Driver/src/stm32f10x_rcc.o
                                                  ../../src/STM/Libraries/STM32F10x_StdPeriph_Driver/src/stm32f10x_usart.o
                                                  ../../src/STM/Libraries/STM32F10x_StdPeriph_Driver/src/stm32f10x_tim.o
                                                  ../../src/STM/Libraries/STM32F10x_StdPeriph_Driver/src/stm32f10x_spi.o
                                                  ../../src/STM/Libraries/STM32F10x_StdPeriph_Driver/src/stm32f10x_gpio.o
                                                  ../../src/STM/Libraries/STM32F10x_StdPeriph_Driver/src/stm32f10x_adc.o
RCC_AdjustHSICalibrationValue                     ../../src/STM/Libraries/STM32F10x_StdPeriph_Driver/src/stm32f10x_rcc.o
RCC_BackupResetCmd                                ../../src/STM/Libraries/STM32F10x_StdPeriph_Driver/src/stm32f10x_rcc.o
                                                  ../../src/STM/Libraries/STM32F10x_StdPeriph_Driver/src/stm32f10x_bkp.o
RCC_ClearFlag                                     ../../src/STM/Libraries/STM32F10x_StdPeriph_Driver/src/stm32f10x_rcc.o
RCC_ClearITPendingBit                             ../../src/STM/Libraries/STM32F10x_StdPeriph_Driver/src/stm32f10x_rcc.o
RCC_ClockSecuritySystemCmd                        ../../src/STM/Libraries/STM32F10x_StdPeriph_Driver/src/stm32f10x_rcc.o
RCC_Config                                        ../../src/hw_config.o
RCC_DeInit                                        ../../src/STM/Libraries/STM32F10x_StdPeriph_Driver/src/stm32f10x_rcc.o
                                                  ../../src/CCID/SMARTCARD/smartcard.o
RCC_GetClocksFreq                                 ../../src/STM/Libraries/STM32F10x_StdPeriph_Driver/src/stm32f10x_rcc.o
                                                  ../../src/STM/Libraries/STM32F10x_StdPeriph_Driver/src/stm32f10x_usart.o
                                                  ../../src/STM/Libraries/STM32F10x_StdPeriph_Driver/src/stm32f10x_spi.o
                                                  ../../src/STM/Libraries/STM32F10x_StdPeriph_Driver/src/stm32f10x_i2c.o
                                                  ../../src/CCID/SMARTCARD/smartcard.o
RCC_GetFlagStatus                                 ../../src/STM/Libraries/STM32F10x_StdPeriph_Driver/src/stm32f10x_rcc.o
                                                  ../../src/CCID/SMARTCARD/smartcard.o
RCC_GetITStatus                                   ../../src/STM/Libraries/STM32F10x_StdPeriph_Driver/src/stm32f10x_rcc.o
RCC_GetSYSCLKSource                               ../../src/STM/Libraries/STM32F10x_StdPeriph_Driver/src/stm32f10x_rcc.o
                                                  ../../src/CCID/SMARTCARD/smartcard.o
RCC_HCLKConfig                                    ../../src/STM/Libraries/STM32F10x_StdPeriph_Driver/src/stm32f10x_rcc.o
                                                  ../../src/CCID/SMARTCARD/smartcard.o
RCC_HSEConfig                                     ../../src/STM/Libraries/STM32F10x_StdPeriph_Driver/src/stm32f10x_rcc.o
                                                  ../../src/CCID/SMARTCARD/smartcard.o
RCC_HSICmd                                        ../../src/STM/Libraries/STM32F10x_StdPeriph_Driver/src/stm32f10x_rcc.o
RCC_IRQHandler                                    ../../src/STM/Libraries/CMSIS/Core/CM3/startup/gcc/startup_stm32f10x_hd.o
RCC_ITConfig                                      ../../src/STM/Libraries/STM32F10x_StdPeriph_Driver/src/stm32f10x_rcc.o
RCC_LSEConfig                                     ../../src/STM/Libraries/STM32F10x_StdPeriph_Driver/src/stm32f10x_rcc.o
RCC_LSICmd                                        ../../src/STM/Libraries/STM32F10x_StdPeriph_Driver/src/stm32f10x_rcc.o
RCC_MCOConfig                                     ../../src/STM/Libraries/STM32F10x_StdPeriph_Driver/src/stm32f10x_rcc.o
RCC_PCLK1Config                                   ../../src/STM/Libraries/STM32F10x_StdPeriph_Driver/src/stm32f10x_rcc.o
                                                  ../../src/CCID/SMARTCARD/smartcard.o
RCC_PCLK2Config                                   ../../src/STM/Libraries/STM32F10x_StdPeriph_Driver/src/stm32f10x_rcc.o
                                                  ../../src/CCID/SMARTCARD/smartcard.o
RCC_PLLCmd                                        ../../src/STM/Libraries/STM32F10x_StdPeriph_Driver/src/stm32f10x_rcc.o
                                                  ../../src/CCID/SMARTCARD/smartcard.o
RCC_PLLConfig                                     ../../src/STM/Libraries/STM32F10x_StdPeriph_Driver/src/stm32f10x_rcc.o
                                                  ../../src/CCID/SMARTCARD/smartcard.o
RCC_RTCCLKCmd                                     ../../src/STM/Libraries/STM32F10x_StdPeriph_Driver/src/stm32f10x_rcc.o
RCC_RTCCLKConfig                                  ../../src/STM/Libraries/STM32F10x_StdPeriph_Driver/src/stm32f10x_rcc.o
RCC_SYSCLKConfig                                  ../../src/STM/Libraries/STM32F10x_StdPeriph_Driver/src/stm32f10x_rcc.o
                                                  ../../src/CCID/SMARTCARD/smartcard.o
RCC_USBCLKConfig                                  ../../src/STM/Libraries/STM32F10x_StdPeriph_Driver/src/stm32f10x_rcc.o
                                                  ../../src/hw_config.o
RCC_WaitForHSEStartUp                             ../../src/STM/Libraries/STM32F10x_StdPeriph_Driver/src/stm32f10x_rcc.o
                                                  ../../src/CCID/SMARTCARD/smartcard.o
RDR_to_PC_DataBlock                               ../../src/CCID/Ifd_ccid.o
                                                  ../../src/CCID/Ccid_usb.o
RDR_to_PC_Escape                                  ../../src/CCID/Ifd_ccid.o
                                                  ../../src/CCID/Ccid_usb.o
RDR_to_PC_HardwareError                           ../../src/CCID/Ifd_ccid.o
                                                  ../../src/CCID/Ccid_usb.o
RDR_to_PC_NotifySlotChange                        ../../src/CCID/Ifd_ccid.o
                                                  ../../src/CCID/Ccid_usb.o
RDR_to_PC_Parameters                              ../../src/CCID/Ifd_ccid.o
                                                  ../../src/CCID/Ccid_usb.o
RDR_to_PC_SlotStatus                              ../../src/CCID/Ifd_ccid.o
                                                  ../../src/CCID/Ccid_usb.o
RDR_to_PC_SlotStatus_CardStopped                  ../../src/CCID/Ifd_ccid.o
                                                  ../../src/CCID/Ccid_usb.o
RTCAlarm_IRQHandler                               ../../src/STM/Libraries/CMSIS/Core/CM3/startup/gcc/startup_stm32f10x_hd.o
RTC_ClearFlag                                     ../../src/STM/Libraries/STM32F10x_StdPeriph_Driver/src/stm32f10x_rtc.o
RTC_ClearITPendingBit                             ../../src/STM/Libraries/STM32F10x_StdPeriph_Driver/src/stm32f10x_rtc.o
RTC_EnterConfigMode                               ../../src/STM/Libraries/STM32F10x_StdPeriph_Driver/src/stm32f10x_rtc.o
RTC_ExitConfigMode                                ../../src/STM/Libraries/STM32F10x_StdPeriph_Driver/src/stm32f10x_rtc.o
RTC_GetCounter                                    ../../src/STM/Libraries/STM32F10x_StdPeriph_Driver/src/stm32f10x_rtc.o
RTC_GetDivider                                    ../../src/STM/Libraries/STM32F10x_StdPeriph_Driver/src/stm32f10x_rtc.o
RTC_GetFlagStatus                                 ../../src/STM/Libraries/STM32F10x_StdPeriph_Driver/src/stm32f10x_rtc.o
RTC_GetITStatus                                   ../../src/STM/Libraries/STM32F10x_StdPeriph_Driver/src/stm32f10x_rtc.o
RTC_IRQHandler                                    ../../src/STM/Libraries/CMSIS/Core/CM3/startup/gcc/startup_stm32f10x_hd.o
RTC_ITConfig                                      ../../src/STM/Libraries/STM32F10x_StdPeriph_Driver/src/stm32f10x_rtc.o
RTC_SetAlarm                                      ../../src/STM/Libraries/STM32F10x_StdPeriph_Driver/src/stm32f10x_rtc.o
RTC_SetCounter                                    ../../src/STM/Libraries/STM32F10x_StdPeriph_Driver/src/stm32f10x_rtc.o
RTC_SetPrescaler                                  ../../src/STM/Libraries/STM32F10x_StdPeriph_Driver/src/stm32f10x_rtc.o
RTC_WaitForLastTask                               ../../src/STM/Libraries/STM32F10x_StdPeriph_Driver/src/stm32f10x_rtc.o
RTC_WaitForSynchro                                ../../src/STM/Libraries/STM32F10x_StdPeriph_Driver/src/stm32f10x_rtc.o
ReadButton                                        ../../src/hw_config.o
Request                                           ../../src/CCID/CCIDHID_USB/CCIDHID_usb_prop.o
RequestType                                       ../../src/CCID/CCIDHID_USB/CCIDHID_usb_prop.o
Reset_Handler                                     ../../src/STM/Libraries/CMSIS/Core/CM3/startup/gcc/startup_stm32f10x_hd.o
RestartSmartcard                                  ../../src/CCID/SMARTCARD/smartcard.o
                                                  ../../src/CCID/Ifd_ccid.o
Resume                                            ../../src/USB/usb_pwr.o
                                                  ../../src/USB/usb_istr.o
ResumeS                                           ../../src/USB/usb_pwr.o
Resume_Init                                       ../../src/USB/usb_pwr.o
SCSI_BlkLen                                       ../../src/USB/usb_bot.o
SCSI_LBA                                          ../../src/USB/usb_bot.o
SC_A2R                                            ../../src/CCID/SMARTCARD/smartcard.o
                                                  ../../src/CCID/Ifd_protocol.o
SC_ATR_Length                                     ../../src/CCID/SMARTCARD/smartcard.o
SC_ATR_Table                                      ../../src/CCID/SMARTCARD/smartcard.o
SC_Handler                                        ../../src/CCID/SMARTCARD/smartcard.o
SC_Init                                           ../../src/CCID/SMARTCARD/smartcard.o
SC_PTSConfig                                      ../../src/CCID/SMARTCARD/smartcard.o
SC_ParityErrorHandler                             ../../src/CCID/SMARTCARD/smartcard.o
SC_PowerCmd                                       ../../src/CCID/SMARTCARD/smartcard.o
SC_Reset                                          ../../src/CCID/SMARTCARD/smartcard.o
SC_Responce                                       ../../src/CCID/SMARTCARD/smartcard.o
SC_SetHwParams                                    ../../src/CCID/SMARTCARD/smartcard.o
SDIO_CEATAITCmd                                   ../../src/STM/Libraries/STM32F10x_StdPeriph_Driver/src/stm32f10x_sdio.o
SDIO_ClearFlag                                    ../../src/STM/Libraries/STM32F10x_StdPeriph_Driver/src/stm32f10x_sdio.o
SDIO_ClearITPendingBit                            ../../src/STM/Libraries/STM32F10x_StdPeriph_Driver/src/stm32f10x_sdio.o
SDIO_ClockCmd                                     ../../src/STM/Libraries/STM32F10x_StdPeriph_Driver/src/stm32f10x_sdio.o
SDIO_CmdStructInit                                ../../src/STM/Libraries/STM32F10x_StdPeriph_Driver/src/stm32f10x_sdio.o
SDIO_CommandCompletionCmd                         ../../src/STM/Libraries/STM32F10x_StdPeriph_Driver/src/stm32f10x_sdio.o
SDIO_DMACmd                                       ../../src/STM/Libraries/STM32F10x_StdPeriph_Driver/src/stm32f10x_sdio.o
SDIO_DataConfig                                   ../../src/STM/Libraries/STM32F10x_StdPeriph_Driver/src/stm32f10x_sdio.o
SDIO_DataStructInit                               ../../src/STM/Libraries/STM32F10x_StdPeriph_Driver/src/stm32f10x_sdio.o
SDIO_DeInit                                       ../../src/STM/Libraries/STM32F10x_StdPeriph_Driver/src/stm32f10x_sdio.o
SDIO_GetCommandResponse                           ../../src/STM/Libraries/STM32F10x_StdPeriph_Driver/src/stm32f10x_sdio.o
SDIO_GetDataCounter                               ../../src/STM/Libraries/STM32F10x_StdPeriph_Driver/src/stm32f10x_sdio.o
SDIO_GetFIFOCount                                 ../../src/STM/Libraries/STM32F10x_StdPeriph_Driver/src/stm32f10x_sdio.o
SDIO_GetFlagStatus                                ../../src/STM/Libraries/STM32F10x_StdPeriph_Driver/src/stm32f10x_sdio.o
SDIO_GetITStatus                                  ../../src/STM/Libraries/STM32F10x_StdPeriph_Driver/src/stm32f10x_sdio.o
SDIO_GetPowerState                                ../../src/STM/Libraries/STM32F10x_StdPeriph_Driver/src/stm32f10x_sdio.o
SDIO_GetResponse                                  ../../src/STM/Libraries/STM32F10x_StdPeriph_Driver/src/stm32f10x_sdio.o
SDIO_IRQHandler                                   ../../src/STM/stm32f10x_it.o
SDIO_ITConfig                                     ../../src/STM/Libraries/STM32F10x_StdPeriph_Driver/src/stm32f10x_sdio.o
SDIO_Init                                         ../../src/STM/Libraries/STM32F10x_StdPeriph_Driver/src/stm32f10x_sdio.o
SDIO_ReadData                                     ../../src/STM/Libraries/STM32F10x_StdPeriph_Driver/src/stm32f10x_sdio.o
SDIO_SendCEATACmd                                 ../../src/STM/Libraries/STM32F10x_StdPeriph_Driver/src/stm32f10x_sdio.o
SDIO_SendCommand                                  ../../src/STM/Libraries/STM32F10x_StdPeriph_Driver/src/stm32f10x_sdio.o
SDIO_SendSDIOSuspendCmd                           ../../src/STM/Libraries/STM32F10x_StdPeriph_Driver/src/stm32f10x_sdio.o
SDIO_SetPowerState                                ../../src/STM/Libraries/STM32F10x_StdPeriph_Driver/src/stm32f10x_sdio.o
SDIO_SetSDIOOperation                             ../../src/STM/Libraries/STM32F10x_StdPeriph_Driver/src/stm32f10x_sdio.o
SDIO_SetSDIOReadWaitMode                          ../../src/STM/Libraries/STM32F10x_StdPeriph_Driver/src/stm32f10x_sdio.o
SDIO_StartSDIOReadWait                            ../../src/STM/Libraries/STM32F10x_StdPeriph_Driver/src/stm32f10x_sdio.o
SDIO_StopSDIOReadWait                             ../../src/STM/Libraries/STM32F10x_StdPeriph_Driver/src/stm32f10x_sdio.o
SDIO_StructInit                                   ../../src/STM/Libraries/STM32F10x_StdPeriph_Driver/src/stm32f10x_sdio.o
SDIO_WriteData                                    ../../src/STM/Libraries/STM32F10x_StdPeriph_Driver/src/stm32f10x_sdio.o
SPI1_IRQHandler                                   ../../src/STM/Libraries/CMSIS/Core/CM3/startup/gcc/startup_stm32f10x_hd.o
SPI2_IRQHandler                                   ../../src/STM/Libraries/CMSIS/Core/CM3/startup/gcc/startup_stm32f10x_hd.o
SPI3_IRQHandler                                   ../../src/STM/Libraries/CMSIS/Core/CM3/startup/gcc/startup_stm32f10x_hd.o
SPI_BiDirectionalLineConfig                       ../../src/STM/Libraries/STM32F10x_StdPeriph_Driver/src/stm32f10x_spi.o
SPI_CalculateCRC                                  ../../src/STM/Libraries/STM32F10x_StdPeriph_Driver/src/stm32f10x_spi.o
SPI_Cmd                                           ../../src/STM/Libraries/STM32F10x_StdPeriph_Driver/src/stm32f10x_spi.o
SPI_DataSizeConfig                                ../../src/STM/Libraries/STM32F10x_StdPeriph_Driver/src/stm32f10x_spi.o
SPI_GetCRC                                        ../../src/STM/Libraries/STM32F10x_StdPeriph_Driver/src/stm32f10x_spi.o
SPI_GetCRCPolynomial                              ../../src/STM/Libraries/STM32F10x_StdPeriph_Driver/src/stm32f10x_spi.o
SPI_I2S_ClearFlag                                 ../../src/STM/Libraries/STM32F10x_StdPeriph_Driver/src/stm32f10x_spi.o
SPI_I2S_ClearITPendingBit                         ../../src/STM/Libraries/STM32F10x_StdPeriph_Driver/src/stm32f10x_spi.o
SPI_I2S_DMACmd                                    ../../src/STM/Libraries/STM32F10x_StdPeriph_Driver/src/stm32f10x_spi.o
SPI_I2S_DeInit                                    ../../src/STM/Libraries/STM32F10x_StdPeriph_Driver/src/stm32f10x_spi.o
SPI_I2S_GetFlagStatus                             ../../src/STM/Libraries/STM32F10x_StdPeriph_Driver/src/stm32f10x_spi.o
SPI_I2S_GetITStatus                               ../../src/STM/Libraries/STM32F10x_StdPeriph_Driver/src/stm32f10x_spi.o
SPI_I2S_ITConfig                                  ../../src/STM/Libraries/STM32F10x_StdPeriph_Driver/src/stm32f10x_spi.o
SPI_I2S_ReceiveData                               ../../src/STM/Libraries/STM32F10x_StdPeriph_Driver/src/stm32f10x_spi.o
SPI_I2S_SendData                                  ../../src/STM/Libraries/STM32F10x_StdPeriph_Driver/src/stm32f10x_spi.o
SPI_Init                                          ../../src/STM/Libraries/STM32F10x_StdPeriph_Driver/src/stm32f10x_spi.o
SPI_NSSInternalSoftwareConfig                     ../../src/STM/Libraries/STM32F10x_StdPeriph_Driver/src/stm32f10x_spi.o
SPI_SSOutputCmd                                   ../../src/STM/Libraries/STM32F10x_StdPeriph_Driver/src/stm32f10x_spi.o
SPI_StructInit                                    ../../src/STM/Libraries/STM32F10x_StdPeriph_Driver/src/stm32f10x_spi.o
SPI_TransmitCRC                                   ../../src/STM/Libraries/STM32F10x_StdPeriph_Driver/src/stm32f10x_spi.o
SVC_Handler                                       ../../src/STM/stm32f10x_it.o
SaveRState                                        ../../src/STM/Libraries/STM32_USB-FS-Device_Driver/src/usb_int.o
                                                  ../../src/STM/Libraries/STM32_USB-FS-Device_Driver/src/usb_core.o
SaveState                                         ../../src/STM/Libraries/STM32_USB-FS-Device_Driver/src/usb_init.o
SaveTState                                        ../../src/STM/Libraries/STM32_USB-FS-Device_Driver/src/usb_int.o
                                                  ../../src/STM/Libraries/STM32_USB-FS-Device_Driver/src/usb_core.o
SendAPDU                                          ../../src/CCID/CcidLocalAccess.o
SendTPDU                                          ../../src/CCID/CcidLocalAccess.o
SetBTABLE                                         ../../src/STM/Libraries/STM32_USB-FS-Device_Driver/src/usb_regs.o
                                                  ../../src/SD_DISK/SD_USB/usb_prop.o
                                                  ../../src/CCID/CCIDHID_USB/CCIDHID_usb_prop.o
SetCNTR                                           ../../src/STM/Libraries/STM32_USB-FS-Device_Driver/src/usb_regs.o
SetDADDR                                          ../../src/STM/Libraries/STM32_USB-FS-Device_Driver/src/usb_regs.o
SetDeviceAddress                                  ../../src/STM/Libraries/STM32_USB-FS-Device_Driver/src/usb_core.o
                                                  ../../src/SD_DISK/SD_USB/usb_prop.o
                                                  ../../src/CCID/CCIDHID_USB/CCIDHID_usb_prop.o
SetDouBleBuffEPStall                              ../../src/STM/Libraries/STM32_USB-FS-Device_Driver/src/usb_regs.o
SetENDPOINT                                       ../../src/STM/Libraries/STM32_USB-FS-Device_Driver/src/usb_regs.o
SetEPAddress                                      ../../src/STM/Libraries/STM32_USB-FS-Device_Driver/src/usb_regs.o
SetEPCountRxReg                                   ../../src/STM/Libraries/STM32_USB-FS-Device_Driver/src/usb_regs.o
SetEPDblBuf0Addr                                  ../../src/STM/Libraries/STM32_USB-FS-Device_Driver/src/usb_regs.o
SetEPDblBuf0Count                                 ../../src/STM/Libraries/STM32_USB-FS-Device_Driver/src/usb_regs.o
SetEPDblBuf1Addr                                  ../../src/STM/Libraries/STM32_USB-FS-Device_Driver/src/usb_regs.o
SetEPDblBuf1Count                                 ../../src/STM/Libraries/STM32_USB-FS-Device_Driver/src/usb_regs.o
SetEPDblBuffAddr                                  ../../src/STM/Libraries/STM32_USB-FS-Device_Driver/src/usb_regs.o
SetEPDblBuffCount                                 ../../src/STM/Libraries/STM32_USB-FS-Device_Driver/src/usb_regs.o
SetEPDoubleBuff                                   ../../src/STM/Libraries/STM32_USB-FS-Device_Driver/src/usb_regs.o
SetEPRxAddr                                       ../../src/STM/Libraries/STM32_USB-FS-Device_Driver/src/usb_regs.o
                                                  ../../src/SD_DISK/SD_USB/usb_prop.o
                                                  ../../src/CCID/CCIDHID_USB/CCIDHID_usb_prop.o
SetEPRxCount                                      ../../src/STM/Libraries/STM32_USB-FS-Device_Driver/src/usb_regs.o
                                                  ../../src/STM/Libraries/STM32_USB-FS-Device_Driver/src/usb_core.o
                                                  ../../src/SD_DISK/SD_USB/usb_prop.o
                                                  ../../src/CCID/CCIDHID_USB/CCIDHID_usb_prop.o
SetEPRxStatus                                     ../../src/STM/Libraries/STM32_USB-FS-Device_Driver/src/usb_regs.o
                                                  ../../src/USB/usb_bot.o
                                                  ../../src/SD_DISK/SD_USB/usb_prop.o
                                                  ../../src/CCID/CCIDHID_USB/CCIDHID_usb_prop.o
                                                  ../../src/CCID/Ccid_usb.o
SetEPRxValid                                      ../../src/STM/Libraries/STM32_USB-FS-Device_Driver/src/usb_regs.o
                                                  ../../src/SD_DISK/SD_USB/usb_prop.o
                                                  ../../src/CCID/CCIDHID_USB/CCIDHID_usb_prop.o
SetEPTxAddr                                       ../../src/STM/Libraries/STM32_USB-FS-Device_Driver/src/usb_regs.o
                                                  ../../src/SD_DISK/SD_USB/usb_prop.o
                                                  ../../src/CCID/CCIDHID_USB/CCIDHID_usb_prop.o
SetEPTxCount                                      ../../src/STM/Libraries/STM32_USB-FS-Device_Driver/src/usb_regs.o
                                                  ../../src/USB/usb_bot.o
                                                  ../../src/KEYBOARD/keyboard.o
                                                  ../../src/STM/Libraries/STM32_USB-FS-Device_Driver/src/usb_core.o
                                                  ../../src/CCID/CCIDHID_USB/CCIDHID_usb_prop.o
                                                  ../../src/CCID/Ccid_usb.o
SetEPTxStatus                                     ../../src/STM/Libraries/STM32_USB-FS-Device_Driver/src/usb_regs.o
                                                  ../../src/USB/usb_bot.o
                                                  ../../src/KEYBOARD/keyboard.o
                                                  ../../src/STM/Libraries/STM32_USB-FS-Device_Driver/src/usb_core.o
                                                  ../../src/SD_DISK/SD_USB/usb_prop.o
                                                  ../../src/CCID/CCIDHID_USB/CCIDHID_usb_prop.o
                                                  ../../src/CCID/Ccid_usb.o
SetEPTxValid                                      ../../src/STM/Libraries/STM32_USB-FS-Device_Driver/src/usb_regs.o
SetEPType                                         ../../src/STM/Libraries/STM32_USB-FS-Device_Driver/src/usb_regs.o
                                                  ../../src/SD_DISK/SD_USB/usb_prop.o
                                                  ../../src/CCID/CCIDHID_USB/CCIDHID_usb_prop.o
SetEP_KIND                                        ../../src/STM/Libraries/STM32_USB-FS-Device_Driver/src/usb_regs.o
SetISTR                                           ../../src/STM/Libraries/STM32_USB-FS-Device_Driver/src/usb_regs.o
Set_CSW                                           ../../src/USB/usb_bot.o
Set_Status_Out                                    ../../src/STM/Libraries/STM32_USB-FS-Device_Driver/src/usb_regs.o
Set_System                                        ../../src/hw_config.o
                                                  ../../src/main.o
Set_USBClock                                      ../../src/hw_config.o
                                                  ../../src/USB/usb_pwr.o
Setup0_Process                                    ../../src/STM/Libraries/STM32_USB-FS-Device_Driver/src/usb_core.o
                                                  ../../src/STM/Libraries/STM32_USB-FS-Device_Driver/src/usb_int.o
SlotStabilizationDelay                            ../../src/CCID/Ccid_usb.o
SmartCardInitInterface                            ../../src/CCID/SMARTCARD/smartcard.o
                                                  ../../src/CCID/CcidLocalAccess.o
                                                  ../../src/main.o
SmartcardOff                                      ../../src/CCID/SMARTCARD/smartcard.o
SmartcardOn                                       ../../src/CCID/SMARTCARD/smartcard.o
Standard_ClearFeature                             ../../src/STM/Libraries/STM32_USB-FS-Device_Driver/src/usb_core.o
Standard_GetConfiguration                         ../../src/STM/Libraries/STM32_USB-FS-Device_Driver/src/usb_core.o
Standard_GetDescriptorData                        ../../src/STM/Libraries/STM32_USB-FS-Device_Driver/src/usb_core.o
                                                  ../../src/SD_DISK/SD_USB/usb_prop.o
                                                  ../../src/CCID/CCIDHID_USB/CCIDHID_usb_prop.o
Standard_GetInterface                             ../../src/STM/Libraries/STM32_USB-FS-Device_Driver/src/usb_core.o
Standard_GetStatus                                ../../src/STM/Libraries/STM32_USB-FS-Device_Driver/src/usb_core.o
Standard_SetConfiguration                         ../../src/STM/Libraries/STM32_USB-FS-Device_Driver/src/usb_core.o
Standard_SetDeviceFeature                         ../../src/STM/Libraries/STM32_USB-FS-Device_Driver/src/usb_core.o
Standard_SetEndPointFeature                       ../../src/STM/Libraries/STM32_USB-FS-Device_Driver/src/usb_core.o
Standard_SetInterface                             ../../src/STM/Libraries/STM32_USB-FS-Device_Driver/src/usb_core.o
StartBlinkingOATHLED                              ../../src/hw_config.o
                                                  ../../src/CRYPT/hotp.o
StatusInfo                                        ../../src/STM/Libraries/STM32_USB-FS-Device_Driver/src/usb_core.o
String_Descriptor                                 ../../src/SD_DISK/SD_USB/usb_prop.o
                                                  ../../src/STM/Libraries/STM32_USB-FS-Device_Driver/src/usb_init.o
                                                  ../../src/CCID/CCIDHID_USB/CCIDHID_usb_prop.o
Suspend                                           ../../src/USB/usb_pwr.o
                                                  ../../src/USB/usb_istr.o
SwitchOATHLED                                     ../../src/hw_config.o
                                                  ../../src/STM/stm32f10x_it.o
SwitchSmartcardLED                                ../../src/hw_config.o
                                                  ../../src/CCID/SMARTCARD/smartcard.o
SysTick_CLKSourceConfig                           ../../src/STM/Libraries/STM32F10x_StdPeriph_Driver/src/misc.o
SysTick_CounterCmd                                ../../src/STM/stm32f10x_systick.o
                                                  ../../src/CCID/SMARTCARD/smartcard.o
SysTick_GetCounter                                ../../src/STM/stm32f10x_systick.o
SysTick_GetFlagStatus                             ../../src/STM/stm32f10x_systick.o
SysTick_Handler                                   ../../src/STM/stm32f10x_it.o
SysTick_ITConfig                                  ../../src/STM/stm32f10x_systick.o
SysTick_SetReload                                 ../../src/STM/stm32f10x_systick.o
SystemFrequency                                   ../../src/STM/Libraries/CMSIS/Core/CM3/system_stm32f10x.o
SystemFrequency_AHBClk                            ../../src/STM/Libraries/CMSIS/Core/CM3/system_stm32f10x.o
SystemFrequency_APB1Clk                           ../../src/STM/Libraries/CMSIS/Core/CM3/system_stm32f10x.o
SystemFrequency_APB2Clk                           ../../src/STM/Libraries/CMSIS/Core/CM3/system_stm32f10x.o
SystemFrequency_SysClk                            ../../src/STM/Libraries/CMSIS/Core/CM3/system_stm32f10x.o
SystemInit                                        ../../src/STM/Libraries/CMSIS/Core/CM3/system_stm32f10x.o
                                                  ../../src/hw_config.o
SystemInit_ExtMemCtl                              ../../src/STM/Libraries/CMSIS/Core/CM3/startup/gcc/startup_stm32f10x_hd.o
SystemInit_ExtMemCtl_Dummy                        ../../src/STM/Libraries/CMSIS/Core/CM3/startup/gcc/startup_stm32f10x_hd.o
TAMPER_IRQHandler                                 ../../src/STM/Libraries/CMSIS/Core/CM3/startup/gcc/startup_stm32f10x_hd.o
TIM1_BRK_IRQHandler                               ../../src/STM/Libraries/CMSIS/Core/CM3/startup/gcc/startup_stm32f10x_hd.o
TIM1_CC_IRQHandler                                ../../src/STM/Libraries/CMSIS/Core/CM3/startup/gcc/startup_stm32f10x_hd.o
TIM1_TRG_COM_IRQHandler                           ../../src/STM/Libraries/CMSIS/Core/CM3/startup/gcc/startup_stm32f10x_hd.o
TIM1_UP_IRQHandler                                ../../src/STM/Libraries/CMSIS/Core/CM3/startup/gcc/startup_stm32f10x_hd.o
TIM2_IRQHandler                                   ../../src/STM/stm32f10x_it.o
TIM3_IRQHandler                                   ../../src/STM/Libraries/CMSIS/Core/CM3/startup/gcc/startup_stm32f10x_hd.o
TIM4_IRQHandler                                   ../../src/STM/Libraries/CMSIS/Core/CM3/startup/gcc/startup_stm32f10x_hd.o
TIM5_IRQHandler                                   ../../src/STM/Libraries/CMSIS/Core/CM3/startup/gcc/startup_stm32f10x_hd.o
TIM6_IRQHandler                                   ../../src/STM/Libraries/CMSIS/Core/CM3/startup/gcc/startup_stm32f10x_hd.o
TIM7_IRQHandler                                   ../../src/STM/Libraries/CMSIS/Core/CM3/startup/gcc/startup_stm32f10x_hd.o
TIM8_BRK_IRQHandler                               ../../src/STM/Libraries/CMSIS/Core/CM3/startup/gcc/startup_stm32f10x_hd.o
TIM8_CC_IRQHandler                                ../../src/STM/Libraries/CMSIS/Core/CM3/startup/gcc/startup_stm32f10x_hd.o
TIM8_TRG_COM_IRQHandler                           ../../src/STM/Libraries/CMSIS/Core/CM3/startup/gcc/startup_stm32f10x_hd.o
TIM8_UP_IRQHandler                                ../../src/STM/Libraries/CMSIS/Core/CM3/startup/gcc/startup_stm32f10x_hd.o
TIM_ARRPreloadConfig                              ../../src/STM/Libraries/STM32F10x_StdPeriph_Driver/src/stm32f10x_tim.o
TIM_BDTRConfig                                    ../../src/STM/Libraries/STM32F10x_StdPeriph_Driver/src/stm32f10x_tim.o
TIM_BDTRStructInit                                ../../src/STM/Libraries/STM32F10x_StdPeriph_Driver/src/stm32f10x_tim.o
TIM_CCPreloadControl                              ../../src/STM/Libraries/STM32F10x_StdPeriph_Driver/src/stm32f10x_tim.o
TIM_CCxCmd                                        ../../src/STM/Libraries/STM32F10x_StdPeriph_Driver/src/stm32f10x_tim.o
TIM_CCxNCmd                                       ../../src/STM/Libraries/STM32F10x_StdPeriph_Driver/src/stm32f10x_tim.o
TIM_ClearFlag                                     ../../src/STM/Libraries/STM32F10x_StdPeriph_Driver/src/stm32f10x_tim.o
TIM_ClearITPendingBit                             ../../src/STM/Libraries/STM32F10x_StdPeriph_Driver/src/stm32f10x_tim.o
TIM_ClearOC1Ref                                   ../../src/STM/Libraries/STM32F10x_StdPeriph_Driver/src/stm32f10x_tim.o
TIM_ClearOC2Ref                                   ../../src/STM/Libraries/STM32F10x_StdPeriph_Driver/src/stm32f10x_tim.o
TIM_ClearOC3Ref                                   ../../src/STM/Libraries/STM32F10x_StdPeriph_Driver/src/stm32f10x_tim.o
TIM_ClearOC4Ref                                   ../../src/STM/Libraries/STM32F10x_StdPeriph_Driver/src/stm32f10x_tim.o
TIM_Cmd                                           ../../src/STM/Libraries/STM32F10x_StdPeriph_Driver/src/stm32f10x_tim.o
                                                  ../../src/hw_config.o
TIM_CounterModeConfig                             ../../src/STM/Libraries/STM32F10x_StdPeriph_Driver/src/stm32f10x_tim.o
TIM_CtrlPWMOutputs                                ../../src/STM/Libraries/STM32F10x_StdPeriph_Driver/src/stm32f10x_tim.o
TIM_DMACmd                                        ../../src/STM/Libraries/STM32F10x_StdPeriph_Driver/src/stm32f10x_tim.o
TIM_DMAConfig                                     ../../src/STM/Libraries/STM32F10x_StdPeriph_Driver/src/stm32f10x_tim.o
TIM_DeInit                                        ../../src/STM/Libraries/STM32F10x_StdPeriph_Driver/src/stm32f10x_tim.o
TIM_ETRClockMode1Config                           ../../src/STM/Libraries/STM32F10x_StdPeriph_Driver/src/stm32f10x_tim.o
TIM_ETRClockMode2Config                           ../../src/STM/Libraries/STM32F10x_StdPeriph_Driver/src/stm32f10x_tim.o
TIM_ETRConfig                                     ../../src/STM/Libraries/STM32F10x_StdPeriph_Driver/src/stm32f10x_tim.o
TIM_EncoderInterfaceConfig                        ../../src/STM/Libraries/STM32F10x_StdPeriph_Driver/src/stm32f10x_tim.o
TIM_ForcedOC1Config                               ../../src/STM/Libraries/STM32F10x_StdPeriph_Driver/src/stm32f10x_tim.o
TIM_ForcedOC2Config                               ../../src/STM/Libraries/STM32F10x_StdPeriph_Driver/src/stm32f10x_tim.o
TIM_ForcedOC3Config                               ../../src/STM/Libraries/STM32F10x_StdPeriph_Driver/src/stm32f10x_tim.o
TIM_ForcedOC4Config                               ../../src/STM/Libraries/STM32F10x_StdPeriph_Driver/src/stm32f10x_tim.o
TIM_GenerateEvent                                 ../../src/STM/Libraries/STM32F10x_StdPeriph_Driver/src/stm32f10x_tim.o
TIM_GetCapture1                                   ../../src/STM/Libraries/STM32F10x_StdPeriph_Driver/src/stm32f10x_tim.o
TIM_GetCapture2                                   ../../src/STM/Libraries/STM32F10x_StdPeriph_Driver/src/stm32f10x_tim.o
TIM_GetCapture3                                   ../../src/STM/Libraries/STM32F10x_StdPeriph_Driver/src/stm32f10x_tim.o
TIM_GetCapture4                                   ../../src/STM/Libraries/STM32F10x_StdPeriph_Driver/src/stm32f10x_tim.o
TIM_GetCounter                                    ../../src/STM/Libraries/STM32F10x_StdPeriph_Driver/src/stm32f10x_tim.o
TIM_GetFlagStatus                                 ../../src/STM/Libraries/STM32F10x_StdPeriph_Driver/src/stm32f10x_tim.o
TIM_GetITStatus                                   ../../src/STM/Libraries/STM32F10x_StdPeriph_Driver/src/stm32f10x_tim.o
TIM_GetPrescaler                                  ../../src/STM/Libraries/STM32F10x_StdPeriph_Driver/src/stm32f10x_tim.o
TIM_ICInit                                        ../../src/STM/Libraries/STM32F10x_StdPeriph_Driver/src/stm32f10x_tim.o
TIM_ICStructInit                                  ../../src/STM/Libraries/STM32F10x_StdPeriph_Driver/src/stm32f10x_tim.o
TIM_ITConfig                                      ../../src/STM/Libraries/STM32F10x_StdPeriph_Driver/src/stm32f10x_tim.o
                                                  ../../src/hw_config.o
TIM_ITRxExternalClockConfig                       ../../src/STM/Libraries/STM32F10x_StdPeriph_Driver/src/stm32f10x_tim.o
TIM_InternalClockConfig                           ../../src/STM/Libraries/STM32F10x_StdPeriph_Driver/src/stm32f10x_tim.o
TIM_OC1FastConfig                                 ../../src/STM/Libraries/STM32F10x_StdPeriph_Driver/src/stm32f10x_tim.o
TIM_OC1Init                                       ../../src/STM/Libraries/STM32F10x_StdPeriph_Driver/src/stm32f10x_tim.o
TIM_OC1NPolarityConfig                            ../../src/STM/Libraries/STM32F10x_StdPeriph_Driver/src/stm32f10x_tim.o
TIM_OC1PolarityConfig                             ../../src/STM/Libraries/STM32F10x_StdPeriph_Driver/src/stm32f10x_tim.o
TIM_OC1PreloadConfig                              ../../src/STM/Libraries/STM32F10x_StdPeriph_Driver/src/stm32f10x_tim.o
TIM_OC2FastConfig                                 ../../src/STM/Libraries/STM32F10x_StdPeriph_Driver/src/stm32f10x_tim.o
TIM_OC2Init                                       ../../src/STM/Libraries/STM32F10x_StdPeriph_Driver/src/stm32f10x_tim.o
TIM_OC2NPolarityConfig                            ../../src/STM/Libraries/STM32F10x_StdPeriph_Driver/src/stm32f10x_tim.o
TIM_OC2PolarityConfig                             ../../src/STM/Libraries/STM32F10x_StdPeriph_Driver/src/stm32f10x_tim.o
TIM_OC2PreloadConfig                              ../../src/STM/Libraries/STM32F10x_StdPeriph_Driver/src/stm32f10x_tim.o
TIM_OC3FastConfig                                 ../../src/STM/Libraries/STM32F10x_StdPeriph_Driver/src/stm32f10x_tim.o
TIM_OC3Init                                       ../../src/STM/Libraries/STM32F10x_StdPeriph_Driver/src/stm32f10x_tim.o
TIM_OC3NPolarityConfig                            ../../src/STM/Libraries/STM32F10x_StdPeriph_Driver/src/stm32f10x_tim.o
TIM_OC3PolarityConfig                             ../../src/STM/Libraries/STM32F10x_StdPeriph_Driver/src/stm32f10x_tim.o
TIM_OC3PreloadConfig                              ../../src/STM/Libraries/STM32F10x_StdPeriph_Driver/src/stm32f10x_tim.o
TIM_OC4FastConfig                                 ../../src/STM/Libraries/STM32F10x_StdPeriph_Driver/src/stm32f10x_tim.o
TIM_OC4Init                                       ../../src/STM/Libraries/STM32F10x_StdPeriph_Driver/src/stm32f10x_tim.o
TIM_OC4PolarityConfig                             ../../src/STM/Libraries/STM32F10x_StdPeriph_Driver/src/stm32f10x_tim.o
TIM_OC4PreloadConfig                              ../../src/STM/Libraries/STM32F10x_StdPeriph_Driver/src/stm32f10x_tim.o
TIM_OCStructInit                                  ../../src/STM/Libraries/STM32F10x_StdPeriph_Driver/src/stm32f10x_tim.o
TIM_PWMIConfig                                    ../../src/STM/Libraries/STM32F10x_StdPeriph_Driver/src/stm32f10x_tim.o
TIM_PrescalerConfig                               ../../src/STM/Libraries/STM32F10x_StdPeriph_Driver/src/stm32f10x_tim.o
TIM_SelectCCDMA                                   ../../src/STM/Libraries/STM32F10x_StdPeriph_Driver/src/stm32f10x_tim.o
TIM_SelectCOM                                     ../../src/STM/Libraries/STM32F10x_StdPeriph_Driver/src/stm32f10x_tim.o
TIM_SelectHallSensor                              ../../src/STM/Libraries/STM32F10x_StdPeriph_Driver/src/stm32f10x_tim.o
TIM_SelectInputTrigger                            ../../src/STM/Libraries/STM32F10x_StdPeriph_Driver/src/stm32f10x_tim.o
TIM_SelectMasterSlaveMode                         ../../src/STM/Libraries/STM32F10x_StdPeriph_Driver/src/stm32f10x_tim.o
TIM_SelectOCxM                                    ../../src/STM/Libraries/STM32F10x_StdPeriph_Driver/src/stm32f10x_tim.o
TIM_SelectOnePulseMode                            ../../src/STM/Libraries/STM32F10x_StdPeriph_Driver/src/stm32f10x_tim.o
TIM_SelectOutputTrigger                           ../../src/STM/Libraries/STM32F10x_StdPeriph_Driver/src/stm32f10x_tim.o
TIM_SelectSlaveMode                               ../../src/STM/Libraries/STM32F10x_StdPeriph_Driver/src/stm32f10x_tim.o
TIM_SetAutoreload                                 ../../src/STM/Libraries/STM32F10x_StdPeriph_Driver/src/stm32f10x_tim.o
TIM_SetClockDivision                              ../../src/STM/Libraries/STM32F10x_StdPeriph_Driver/src/stm32f10x_tim.o
TIM_SetCompare1                                   ../../src/STM/Libraries/STM32F10x_StdPeriph_Driver/src/stm32f10x_tim.o
TIM_SetCompare2                                   ../../src/STM/Libraries/STM32F10x_StdPeriph_Driver/src/stm32f10x_tim.o
TIM_SetCompare3                                   ../../src/STM/Libraries/STM32F10x_StdPeriph_Driver/src/stm32f10x_tim.o
TIM_SetCompare4                                   ../../src/STM/Libraries/STM32F10x_StdPeriph_Driver/src/stm32f10x_tim.o
TIM_SetCounter                                    ../../src/STM/Libraries/STM32F10x_StdPeriph_Driver/src/stm32f10x_tim.o
TIM_SetIC1Prescaler                               ../../src/STM/Libraries/STM32F10x_StdPeriph_Driver/src/stm32f10x_tim.o
TIM_SetIC2Prescaler                               ../../src/STM/Libraries/STM32F10x_StdPeriph_Driver/src/stm32f10x_tim.o
TIM_SetIC3Prescaler                               ../../src/STM/Libraries/STM32F10x_StdPeriph_Driver/src/stm32f10x_tim.o
TIM_SetIC4Prescaler                               ../../src/STM/Libraries/STM32F10x_StdPeriph_Driver/src/stm32f10x_tim.o
TIM_TIxExternalClockConfig                        ../../src/STM/Libraries/STM32F10x_StdPeriph_Driver/src/stm32f10x_tim.o
TIM_TimeBaseInit                                  ../../src/STM/Libraries/STM32F10x_StdPeriph_Driver/src/stm32f10x_tim.o
                                                  ../../src/hw_config.o
TIM_TimeBaseStructInit                            ../../src/STM/Libraries/STM32F10x_StdPeriph_Driver/src/stm32f10x_tim.o
TIM_UpdateDisableConfig                           ../../src/STM/Libraries/STM32F10x_StdPeriph_Driver/src/stm32f10x_tim.o
TIM_UpdateRequestConfig                           ../../src/STM/Libraries/STM32F10x_StdPeriph_Driver/src/stm32f10x_tim.o
Test1                                             ../../src/main.o
TimingDelay                                       ../../src/STM/stm32f10x_it.o
                                                  ../../src/CCID/SMARTCARD/smartcard.o
ToWord                                            ../../src/STM/Libraries/STM32_USB-FS-Device_Driver/src/usb_regs.o
ToggleDTOG_RX                                     ../../src/STM/Libraries/STM32_USB-FS-Device_Driver/src/usb_regs.o
ToggleDTOG_TX                                     ../../src/STM/Libraries/STM32_USB-FS-Device_Driver/src/usb_regs.o
Transfer_Data_Request                             ../../src/USB/usb_bot.o
UART4_IRQHandler                                  ../../src/STM/Libraries/CMSIS/Core/CM3/startup/gcc/startup_stm32f10x_hd.o
UART5_IRQHandler                                  ../../src/STM/Libraries/CMSIS/Core/CM3/startup/gcc/startup_stm32f10x_hd.o
USART1_IRQHandler                                 ../../src/STM/Libraries/CMSIS/Core/CM3/startup/gcc/startup_stm32f10x_hd.o
USART2_IRQHandler                                 ../../src/STM/Libraries/CMSIS/Core/CM3/startup/gcc/startup_stm32f10x_hd.o
USART3_IRQHandler                                 ../../src/STM/Libraries/CMSIS/Core/CM3/startup/gcc/startup_stm32f10x_hd.o
USART_ClearFlag                                   ../../src/STM/Libraries/STM32F10x_StdPeriph_Driver/src/stm32f10x_usart.o
USART_ClearITPendingBit                           ../../src/STM/Libraries/STM32F10x_StdPeriph_Driver/src/stm32f10x_usart.o
USART_ClockInit                                   ../../src/STM/Libraries/STM32F10x_StdPeriph_Driver/src/stm32f10x_usart.o
                                                  ../../src/CCID/SMARTCARD/smartcard.o
USART_ClockStructInit                             ../../src/STM/Libraries/STM32F10x_StdPeriph_Driver/src/stm32f10x_usart.o
USART_Cmd                                         ../../src/STM/Libraries/STM32F10x_StdPeriph_Driver/src/stm32f10x_usart.o
                                                  ../../src/CCID/SMARTCARD/smartcard.o
USART_DMACmd                                      ../../src/STM/Libraries/STM32F10x_StdPeriph_Driver/src/stm32f10x_usart.o
                                                  ../../src/CCID/SMARTCARD/smartcard.o
USART_DeInit                                      ../../src/STM/Libraries/STM32F10x_StdPeriph_Driver/src/stm32f10x_usart.o
                                                  ../../src/CCID/SMARTCARD/smartcard.o
USART_GetFlagStatus                               ../../src/STM/Libraries/STM32F10x_StdPeriph_Driver/src/stm32f10x_usart.o
                                                  ../../src/CCID/SMARTCARD/smartcard.o
USART_GetITStatus                                 ../../src/STM/Libraries/STM32F10x_StdPeriph_Driver/src/stm32f10x_usart.o
USART_HalfDuplexCmd                               ../../src/STM/Libraries/STM32F10x_StdPeriph_Driver/src/stm32f10x_usart.o
USART_ITConfig                                    ../../src/STM/Libraries/STM32F10x_StdPeriph_Driver/src/stm32f10x_usart.o
                                                  ../../src/CCID/SMARTCARD/smartcard.o
USART_Init                                        ../../src/STM/Libraries/STM32F10x_StdPeriph_Driver/src/stm32f10x_usart.o
                                                  ../../src/CCID/SMARTCARD/smartcard.o
USART_IrDACmd                                     ../../src/STM/Libraries/STM32F10x_StdPeriph_Driver/src/stm32f10x_usart.o
USART_IrDAConfig                                  ../../src/STM/Libraries/STM32F10x_StdPeriph_Driver/src/stm32f10x_usart.o
USART_LINBreakDetectLengthConfig                  ../../src/STM/Libraries/STM32F10x_StdPeriph_Driver/src/stm32f10x_usart.o
USART_LINCmd                                      ../../src/STM/Libraries/STM32F10x_StdPeriph_Driver/src/stm32f10x_usart.o
USART_ReceiveData                                 ../../src/STM/Libraries/STM32F10x_StdPeriph_Driver/src/stm32f10x_usart.o
                                                  ../../src/CCID/SMARTCARD/smartcard.o
USART_ReceiverWakeUpCmd                           ../../src/STM/Libraries/STM32F10x_StdPeriph_Driver/src/stm32f10x_usart.o
USART_SendBreak                                   ../../src/STM/Libraries/STM32F10x_StdPeriph_Driver/src/stm32f10x_usart.o
USART_SendData                                    ../../src/STM/Libraries/STM32F10x_StdPeriph_Driver/src/stm32f10x_usart.o
                                                  ../../src/CCID/SMARTCARD/smartcard.o
USART_SetAddress                                  ../../src/STM/Libraries/STM32F10x_StdPeriph_Driver/src/stm32f10x_usart.o
USART_SetGuardTime                                ../../src/STM/Libraries/STM32F10x_StdPeriph_Driver/src/stm32f10x_usart.o
                                                  ../../src/CCID/SMARTCARD/smartcard.o
USART_SetPrescaler                                ../../src/STM/Libraries/STM32F10x_StdPeriph_Driver/src/stm32f10x_usart.o
                                                  ../../src/CCID/SMARTCARD/smartcard.o
USART_SmartCardCmd                                ../../src/STM/Libraries/STM32F10x_StdPeriph_Driver/src/stm32f10x_usart.o
                                                  ../../src/CCID/SMARTCARD/smartcard.o
USART_SmartCardNACKCmd                            ../../src/STM/Libraries/STM32F10x_StdPeriph_Driver/src/stm32f10x_usart.o
                                                  ../../src/CCID/SMARTCARD/smartcard.o
USART_StructInit                                  ../../src/STM/Libraries/STM32F10x_StdPeriph_Driver/src/stm32f10x_usart.o
USART_WakeUpConfig                                ../../src/STM/Libraries/STM32F10x_StdPeriph_Driver/src/stm32f10x_usart.o
USBWakeUp_IRQHandler                              ../../src/STM/Libraries/CMSIS/Core/CM3/startup/gcc/startup_stm32f10x_hd.o
USB_CCID_Data_Setup                               ../../src/CCID/CCIDHID_USB/CCIDHID_usb_prop.o
USB_CCID_GetConfigDescriptor                      ../../src/CCID/CCIDHID_USB/CCIDHID_usb_prop.o
USB_CCID_GetDeviceDescriptor                      ../../src/CCID/CCIDHID_USB/CCIDHID_usb_prop.o
USB_CCID_GetStringDescriptor                      ../../src/CCID/CCIDHID_USB/CCIDHID_usb_prop.o
USB_CCID_Get_Interface_Setting                    ../../src/CCID/CCIDHID_USB/CCIDHID_usb_prop.o
USB_CCID_Get_Max_Lun                              ../../src/CCID/CCIDHID_USB/CCIDHID_usb_prop.o
USB_CCID_NoData_Setup                             ../../src/CCID/CCIDHID_USB/CCIDHID_usb_prop.o
USB_CCID_Reset                                    ../../src/CCID/CCIDHID_USB/CCIDHID_usb_prop.o
USB_CCID_Status_In                                ../../src/CCID/CCIDHID_USB/CCIDHID_usb_prop.o
USB_CCID_Status_Out                               ../../src/CCID/CCIDHID_USB/CCIDHID_usb_prop.o
USB_CCID_Storage_SetConfiguration                 ../../src/CCID/CCIDHID_USB/CCIDHID_usb_prop.o
USB_CCID_Storage_SetDeviceAddress                 ../../src/CCID/CCIDHID_USB/CCIDHID_usb_prop.o
USB_CCID_init                                     ../../src/CCID/CCIDHID_USB/CCIDHID_usb_prop.o
USB_Cable_Config                                  ../../src/hw_config.o
                                                  ../../src/USB/usb_pwr.o
USB_Disconnect_Config                             ../../src/hw_config.o
USB_HP_CAN1_TX_IRQHandler                         ../../src/STM/stm32f10x_it.o
USB_Init                                          ../../src/STM/Libraries/STM32_USB-FS-Device_Driver/src/usb_init.o
                                                  ../../src/USB/usb_pwr.o
USB_Interrupts_Config                             ../../src/hw_config.o
                                                  ../../src/USB/usb_pwr.o
USB_Istr                                          ../../src/USB/usb_istr.o
                                                  ../../src/STM/stm32f10x_it.o
USB_LP_CAN1_RX0_IRQHandler                        ../../src/STM/stm32f10x_it.o
USB_SetDeviceConfiguration                        ../../src/STM/Libraries/STM32_USB-FS-Device_Driver/src/usb_init.o
                                                  ../../src/main.o
USB_Start                                         ../../src/USB/usb_pwr.o
                                                  ../../src/main.o
UsageFault_Handler                                ../../src/STM/stm32f10x_it.o
UsbIntMessageBuffer                               ../../src/CCID/Ifd_ccid.o
                                                  ../../src/CCID/Ccid_usb.o
UsbMessageBuffer                                  ../../src/CCID/Ifd_ccid.o
                                                  ../../src/CCID/Ifd_protocol.o
                                                  ../../src/CCID/Ccid_usb.o
UsbMessageFlags                                   ../../src/CCID/Ifd_ccid.o
                                                  ../../src/CCID/Ccid_usb.o
UserToPMABufferCopy                               ../../src/STM/Libraries/STM32_USB-FS-Device_Driver/src/usb_mem.o
                                                  ../../src/USB/usb_bot.o
                                                  ../../src/KEYBOARD/keyboard.o
                                                  ../../src/STM/Libraries/STM32_USB-FS-Device_Driver/src/usb_core.o
                                                  ../../src/CCID/Ccid_usb.o
User_Standard_Requests                            ../../src/SD_DISK/SD_USB/usb_prop.o
                                                  ../../src/STM/Libraries/STM32_USB-FS-Device_Driver/src/usb_init.o
WWDG_ClearFlag                                    ../../src/STM/Libraries/STM32F10x_StdPeriph_Driver/src/stm32f10x_wwdg.o
WWDG_DeInit                                       ../../src/STM/Libraries/STM32F10x_StdPeriph_Driver/src/stm32f10x_wwdg.o
WWDG_Enable                                       ../../src/STM/Libraries/STM32F10x_StdPeriph_Driver/src/stm32f10x_wwdg.o
WWDG_EnableIT                                     ../../src/STM/Libraries/STM32F10x_StdPeriph_Driver/src/stm32f10x_wwdg.o
WWDG_GetFlagStatus                                ../../src/STM/Libraries/STM32F10x_StdPeriph_Driver/src/stm32f10x_wwdg.o
WWDG_IRQHandler                                   ../../src/STM/Libraries/CMSIS/Core/CM3/startup/gcc/startup_stm32f10x_hd.o
WWDG_SetCounter                                   ../../src/STM/Libraries/STM32F10x_StdPeriph_Driver/src/stm32f10x_wwdg.o
WWDG_SetPrescaler                                 ../../src/STM/Libraries/STM32F10x_StdPeriph_Driver/src/stm32f10x_wwdg.o
WWDG_SetWindowValue                               ../../src/STM/Libraries/STM32F10x_StdPeriph_Driver/src/stm32f10x_wwdg.o
WaitForATR                                        ../../src/CCID/SMARTCARD/smartcard.o
XEP3_IN_Callback                                  ../../src/USB/usb_endp.o
__Init_Data                                       ../../src/STM/Libraries/CMSIS/Core/CM3/startup/gcc/startup_stm32f10x_hd.o
__LDREXB                                          ../../src/STM/Libraries/CMSIS/Core/CM3/core_cm3.o
__LDREXH                                          ../../src/STM/Libraries/CMSIS/Core/CM3/core_cm3.o
__LDREXW                                          ../../src/STM/Libraries/CMSIS/Core/CM3/core_cm3.o
__RBIT                                            ../../src/STM/Libraries/CMSIS/Core/CM3/core_cm3.o
__REV                                             ../../src/STM/Libraries/CMSIS/Core/CM3/core_cm3.o
__REV16                                           ../../src/STM/Libraries/CMSIS/Core/CM3/core_cm3.o
__REVSH                                           ../../src/STM/Libraries/CMSIS/Core/CM3/core_cm3.o
__STREXB                                          ../../src/STM/Libraries/CMSIS/Core/CM3/core_cm3.o
__STREXH                                          ../../src/STM/Libraries/CMSIS/Core/CM3/core_cm3.o
__STREXW                                          ../../src/STM/Libraries/CMSIS/Core/CM3/core_cm3.o
__get_BASEPRI                                     ../../src/STM/Libraries/CMSIS/Core/CM3/core_cm3.o
__get_CONTROL                                     ../../src/STM/Libraries/CMSIS/Core/CM3/core_cm3.o
__get_FAULTMASK                                   ../../src/STM/Libraries/CMSIS/Core/CM3/core_cm3.o
__get_MSP                                         ../../src/STM/Libraries/CMSIS/Core/CM3/core_cm3.o
__get_PRIMASK                                     ../../src/STM/Libraries/CMSIS/Core/CM3/core_cm3.o
__get_PSP                                         ../../src/STM/Libraries/CMSIS/Core/CM3/core_cm3.o
__set_BASEPRI                                     ../../src/STM/Libraries/CMSIS/Core/CM3/core_cm3.o
__set_CONTROL                                     ../../src/STM/Libraries/CMSIS/Core/CM3/core_cm3.o
__set_FAULTMASK                                   ../../src/STM/Libraries/CMSIS/Core/CM3/core_cm3.o
__set_MSP                                         ../../src/STM/Libraries/CMSIS/Core/CM3/core_cm3.o
__set_PRIMASK                                     ../../src/STM/Libraries/CMSIS/Core/CM3/core_cm3.o
__set_PSP                                         ../../src/STM/Libraries/CMSIS/Core/CM3/core_cm3.o
_ebss                                             ../../src/STM/Libraries/CMSIS/Core/CM3/startup/gcc/startup_stm32f10x_hd.o
_edata                                            ../../src/STM/Libraries/CMSIS/Core/CM3/startup/gcc/startup_stm32f10x_hd.o
_estack                                           ../../src/STM/Libraries/CMSIS/Core/CM3/startup/gcc/startup_stm32f10x_hd.o
_sbss                                             ../../src/STM/Libraries/CMSIS/Core/CM3/startup/gcc/startup_stm32f10x_hd.o
_sdata                                            ../../src/STM/Libraries/CMSIS/Core/CM3/startup/gcc/startup_stm32f10x_hd.o
_sidata                                           ../../src/STM/Libraries/CMSIS/Core/CM3/startup/gcc/startup_stm32f10x_hd.o
authorized_crc                                    ../../src/KEYBOARD/report_protocol.o
bDeviceState                                      ../../src/USB/usb_pwr.o
                                                  ../../src/KEYBOARD/keyboard.o
                                                  ../../src/SD_DISK/SD_USB/usb_prop.o
                                                  ../../src/CCID/CCIDHID_USB/CCIDHID_usb_prop.o
                                                  ../../src/hw_config.o
bIntPackSOF                                       ../../src/USB/usb_istr.o
backup_data                                       ../../src/CRYPT/hotp.o
blinkOATHLEDTimes                                 ../../src/hw_config.o
                                                  ../../src/STM/stm32f10x_it.o
capsLockClicked                                   ../../src/CCID/CCIDHID_USB/CCIDHID_usb_prop.o
                                                  ../../src/main.o
cardAuthenticate                                  ../../src/CCID/CcidLocalAccess.o
                                                  ../../src/KEYBOARD/report_protocol.o
cardSerial                                        ../../src/hw_config.o
                                                  ../../src/KEYBOARD/report_protocol.o
ch                                                ../../src/CRYPT/SHA1/sha1.o
check_backups                                     ../../src/CRYPT/hotp.o
                                                  ../../src/main.o
cmd_authorize                                     ../../src/KEYBOARD/report_protocol.o
cmd_erase_slot                                    ../../src/KEYBOARD/report_protocol.o
cmd_first_authenticate                            ../../src/KEYBOARD/report_protocol.o
cmd_get_code                                      ../../src/KEYBOARD/report_protocol.o
cmd_get_password_retry_count                      ../../src/KEYBOARD/report_protocol.o
cmd_get_status                                    ../../src/KEYBOARD/report_protocol.o
cmd_read_slot                                     ../../src/KEYBOARD/report_protocol.o
cmd_read_slot_name                                ../../src/KEYBOARD/report_protocol.o
cmd_write_config                                  ../../src/KEYBOARD/report_protocol.o
cmd_write_to_slot                                 ../../src/KEYBOARD/report_protocol.o
currentTime                                       ../../src/main.o
                                                  ../../src/STM/stm32f10x_it.o
                                                  ../../src/CCID/CCIDHID_USB/CCIDHID_usb_prop.o
device_status                                     ../../src/main.o
                                                  ../../src/CCID/CCIDHID_USB/CCIDHID_usb_prop.o
dynamic_truncate                                  ../../src/CRYPT/hotp.o
endian_swap                                       ../../src/CRYPT/hotp.o
fSuspendEnabled                                   ../../src/USB/usb_pwr.o
                                                  ../../src/USB/usb_istr.o
g_pfnVectors                                      ../../src/STM/Libraries/CMSIS/Core/CM3/startup/gcc/startup_stm32f10x_hd.o
getAID                                            ../../src/CCID/CcidLocalAccess.o
                                                  ../../src/KEYBOARD/report_protocol.o
                                                  ../../src/hw_config.o
getByteOfData                                     ../../src/CCID/CcidLocalAccess.o
                                                  ../../src/hw_config.o
getPasswordRetryCount                             ../../src/CCID/CcidLocalAccess.o
                                                  ../../src/KEYBOARD/report_protocol.o
getSerialNumber                                   ../../src/CCID/CcidLocalAccess.o
get_code_from_hotp_slot                           ../../src/CRYPT/hotp.o
                                                  ../../src/KEYBOARD/report_protocol.o
                                                  ../../src/main.o
get_code_from_totp_slot                           ../../src/CRYPT/hotp.o
                                                  ../../src/KEYBOARD/report_protocol.o
get_counter_value                                 ../../src/CRYPT/hotp.o
get_hotp_slot_config                              ../../src/CRYPT/hotp.o
                                                  ../../src/main.o
get_hotp_value                                    ../../src/CRYPT/hotp.o
get_totp_slot_config                              ../../src/CRYPT/hotp.o
getu16                                            ../../src/memory_ops.o
                                                  ../../src/CRYPT/hotp.o
getu32                                            ../../src/memory_ops.o
                                                  ../../src/KEYBOARD/report_protocol.o
                                                  ../../src/CRYPT/hotp.o
getu64                                            ../../src/memory_ops.o
                                                  ../../src/KEYBOARD/report_protocol.o
hmac_sha1                                         ../../src/CRYPT/SHA1/hmac-sha1.o
                                                  ../../src/CRYPT/hotp.o
hmac_sha1_final                                   ../../src/CRYPT/SHA1/hmac-sha1.o
hmac_sha1_init                                    ../../src/CRYPT/SHA1/hmac-sha1.o
hmac_sha1_lastBlock                               ../../src/CRYPT/SHA1/hmac-sha1.o
hmac_sha1_nextBlock                               ../../src/CRYPT/SHA1/hmac-sha1.o
hotp_slot_counters                                ../../src/CRYPT/hotp.o
                                                  ../../src/KEYBOARD/report_protocol.o
hotp_slot_offsets                                 ../../src/CRYPT/hotp.o
                                                  ../../src/KEYBOARD/report_protocol.o
hotp_slots                                        ../../src/CRYPT/hotp.o
                                                  ../../src/KEYBOARD/report_protocol.o
                                                  ../../src/main.o
increment_counter_page                            ../../src/CRYPT/hotp.o
initSCHardware                                    ../../src/CCID/SMARTCARD/smartcard.o
jmpRestartUSB                                     ../../src/main.o
keyboardBuffer                                    ../../src/KEYBOARD/keyboard.o
lastCapsLockChange                                ../../src/CCID/CCIDHID_USB/CCIDHID_usb_prop.o
lastLEDState                                      ../../src/CCID/CCIDHID_USB/CCIDHID_usb_prop.o
lastNumLockChange                                 ../../src/CCID/CCIDHID_USB/CCIDHID_usb_prop.o
lastOATHBlinkTime                                 ../../src/hw_config.o
                                                  ../../src/STM/stm32f10x_it.o
lastScrollLockChange                              ../../src/CCID/CCIDHID_USB/CCIDHID_usb_prop.o
longjmp                                           /usr/bin/../lib/gcc/arm-none-eabi/4.8.3/../../../../arm-none-eabi/lib/armv7-m/libc.a(lib_a-setjmp.o)
main                                              ../../src/main.o
                                                  ../../src/STM/Libraries/CMSIS/Core/CM3/startup/gcc/startup_stm32f10x_hd.o
maj                                               ../../src/CRYPT/SHA1/sha1.o
memcmp                                            /usr/bin/../lib/gcc/arm-none-eabi/4.8.3/../../../../arm-none-eabi/lib/armv7-m/libc.a(lib_a-memcmp.o)
                                                  ../../src/KEYBOARD/report_protocol.o
memcpy                                            /usr/bin/../lib/gcc/arm-none-eabi/4.8.3/../../../../arm-none-eabi/lib/armv7-m/libc.a(lib_a-memcpy.o)
                                                  ../../src/CRYPT/hotp.o
                                                  ../../src/CRYPT/SHA1/hmac-sha1.o
                                                  ../../src/CRYPT/SHA1/sha1.o
                                                  ../../src/CCID/CcidLocalAccess.o
memmove                                           /usr/bin/../lib/gcc/arm-none-eabi/4.8.3/../../../../arm-none-eabi/lib/armv7-m/libc.a(lib_a-memmove.o)
                                                  ../../src/CRYPT/SHA1/sha1.o
memset                                            /usr/bin/../lib/gcc/arm-none-eabi/4.8.3/../../../../arm-none-eabi/lib/armv7-m/libc.a(lib_a-memset.o)
                                                  ../../src/KEYBOARD/report_protocol.o
                                                  ../../src/CRYPT/SHA1/hmac-sha1.o
                                                  ../../src/CRYPT/SHA1/sha1.o
message                                           ../../src/CCID/CCIDHID_USB/CCIDHID_usb_prop.o
nFlagSendSMCardInserted                           ../../src/main.o
                                                  ../../src/CCID/CCIDHID_USB/CCIDHID_usb_prop.o
nGlobalStickState                                 ../../src/main.o
                                                  ../../src/STM/Libraries/STM32_USB-FS-Device_Driver/src/usb_init.o
numLockClicked                                    ../../src/CCID/CCIDHID_USB/CCIDHID_usb_prop.o
                                                  ../../src/main.o
pCrdBuffer                                        ../../src/CCID/Crd.o
pEpInt_IN                                         ../../src/USB/usb_istr.o
                                                  ../../src/STM/Libraries/STM32_USB-FS-Device_Driver/src/usb_int.o
pEpInt_OUT                                        ../../src/USB/usb_istr.o
                                                  ../../src/STM/Libraries/STM32_USB-FS-Device_Driver/src/usb_int.o
pInformation                                      ../../src/STM/Libraries/STM32_USB-FS-Device_Driver/src/usb_init.o
                                                  ../../src/STM/Libraries/STM32_USB-FS-Device_Driver/src/usb_core.o
                                                  ../../src/SD_DISK/SD_USB/usb_prop.o
                                                  ../../src/CCID/CCIDHID_USB/CCIDHID_usb_prop.o
pProperty                                         ../../src/STM/Libraries/STM32_USB-FS-Device_Driver/src/usb_init.o
                                                  ../../src/STM/Libraries/STM32_USB-FS-Device_Driver/src/usb_core.o
pUser_Standard_Requests                           ../../src/STM/Libraries/STM32_USB-FS-Device_Driver/src/usb_init.o
                                                  ../../src/STM/Libraries/STM32_USB-FS-Device_Driver/src/usb_core.o
page_buffer                                       ../../src/CRYPT/hotp.o
parity                                            ../../src/CRYPT/SHA1/sha1.o
parse_report                                      ../../src/KEYBOARD/report_protocol.o
                                                  ../../src/main.o
scrollLockClicked                                 ../../src/CCID/CCIDHID_USB/CCIDHID_usb_prop.o
                                                  ../../src/main.o
sendChar                                          ../../src/KEYBOARD/keyboard.o
sendEnter                                         ../../src/KEYBOARD/keyboard.o
                                                  ../../src/main.o
sendKeys                                          ../../src/KEYBOARD/keyboard.o
sendNumber                                        ../../src/KEYBOARD/keyboard.o
sendNumberN                                       ../../src/KEYBOARD/keyboard.o
                                                  ../../src/main.o
sendString                                        ../../src/KEYBOARD/keyboard.o
                                                  ../../src/main.o
set_counter_value                                 ../../src/CRYPT/hotp.o
                                                  ../../src/KEYBOARD/report_protocol.o
setjmp                                            /usr/bin/../lib/gcc/arm-none-eabi/4.8.3/../../../../arm-none-eabi/lib/armv7-m/libc.a(lib_a-setjmp.o)
                                                  ../../src/main.o
sha1                                              ../../src/CRYPT/SHA1/sha1.o
                                                  ../../src/CRYPT/SHA1/hmac-sha1.o
sha1_ctx2hash                                     ../../src/CRYPT/SHA1/sha1.o
                                                  ../../src/CRYPT/SHA1/hmac-sha1.o
sha1_init                                         ../../src/CRYPT/SHA1/sha1.o
                                                  ../../src/CRYPT/SHA1/hmac-sha1.o
sha1_lastBlock                                    ../../src/CRYPT/SHA1/sha1.o
                                                  ../../src/CRYPT/SHA1/hmac-sha1.o
sha1_nextBlock                                    ../../src/CRYPT/SHA1/sha1.o
                                                  ../../src/CRYPT/SHA1/hmac-sha1.o
strcpy                                            /usr/bin/../lib/gcc/arm-none-eabi/4.8.3/../../../../arm-none-eabi/lib/armv7-m/libc.a(lib_a-strcpy.o)
                                                  ../../src/CCID/CcidLocalAccess.o
strlen                                            /usr/bin/../lib/gcc/arm-none-eabi/4.8.3/../../../../arm-none-eabi/lib/armv7-m/libc.a(lib_a-strlen.o)
                                                  ../../src/CCID/CcidLocalAccess.o
temp_password                                     ../../src/KEYBOARD/report_protocol.o
test2                                             ../../src/main.o
tmp_password_set                                  ../../src/KEYBOARD/report_protocol.o
totp_slot_offsets                                 ../../src/CRYPT/hotp.o
                                                  ../../src/KEYBOARD/report_protocol.o
totp_slots                                        ../../src/CRYPT/hotp.o
                                                  ../../src/KEYBOARD/report_protocol.o
wInterrupt_Mask                                   ../../src/USB/usb_istr.o
                                                  ../../src/USB/usb_pwr.o
                                                  ../../src/STM/Libraries/STM32_USB-FS-Device_Driver/src/usb_init.o
                                                  ../../src/SD_DISK/SD_USB/usb_prop.o
                                                  ../../src/CCID/CCIDHID_USB/CCIDHID_usb_prop.o
wIstr                                             ../../src/USB/usb_istr.o
                                                  ../../src/STM/Libraries/STM32_USB-FS-Device_Driver/src/usb_int.o
write_data_to_flash                               ../../src/CRYPT/hotp.o
write_to_slot                                     ../../src/CRYPT/hotp.o
                                                  ../../src/KEYBOARD/report_protocol.o
